ARM GAS  C:\Users\Jupiter\AppData\Local\Temp\ccFOAWw4.s 			page 1


   1              		.syntax unified
   2              		.cpu cortex-m0plus
   3              		.fpu softvfp
   4              		.eabi_attribute 20, 1
   5              		.eabi_attribute 21, 1
   6              		.eabi_attribute 23, 3
   7              		.eabi_attribute 24, 1
   8              		.eabi_attribute 25, 1
   9              		.eabi_attribute 26, 1
  10              		.eabi_attribute 30, 1
  11              		.eabi_attribute 34, 0
  12              		.eabi_attribute 18, 4
  13              		.thumb
  14              		.syntax unified
  15              		.file	"CapSense_Structure.c"
  16              		.text
  17              	.Ltext0:
  18              		.cfi_sections	.debug_frame
  19              		.section	.text.DsParseParamId,"ax",%progbits
  20              		.align	2
  21              		.code	16
  22              		.thumb_func
  23              		.type	DsParseParamId, %function
  24              	DsParseParamId:
  25              	.LFB2:
  26              		.file 1 "Generated_Source\\PSoC4\\CapSense_Structure.c"
   1:Generated_Source\PSoC4/CapSense_Structure.c **** /***************************************************************************//**
   2:Generated_Source\PSoC4/CapSense_Structure.c **** * \file CapSense_Structure.c
   3:Generated_Source\PSoC4/CapSense_Structure.c **** * \version 7.0
   4:Generated_Source\PSoC4/CapSense_Structure.c **** *
   5:Generated_Source\PSoC4/CapSense_Structure.c **** * \brief
   6:Generated_Source\PSoC4/CapSense_Structure.c **** *   This file defines the data structure global variables and provides implementation
   7:Generated_Source\PSoC4/CapSense_Structure.c **** *   for the high-level and low-level APIs of the Data Structure module.
   8:Generated_Source\PSoC4/CapSense_Structure.c **** *
   9:Generated_Source\PSoC4/CapSense_Structure.c **** * \see CapSense v7.0 Datasheet
  10:Generated_Source\PSoC4/CapSense_Structure.c **** *
  11:Generated_Source\PSoC4/CapSense_Structure.c **** *//*****************************************************************************
  12:Generated_Source\PSoC4/CapSense_Structure.c **** * Copyright (2016-2019), Cypress Semiconductor Corporation.
  13:Generated_Source\PSoC4/CapSense_Structure.c **** ********************************************************************************
  14:Generated_Source\PSoC4/CapSense_Structure.c **** * This software is owned by Cypress Semiconductor Corporation (Cypress) and is
  15:Generated_Source\PSoC4/CapSense_Structure.c **** * protected by and subject to worldwide patent protection (United States and
  16:Generated_Source\PSoC4/CapSense_Structure.c **** * foreign), United States copyright laws and international treaty provisions.
  17:Generated_Source\PSoC4/CapSense_Structure.c **** * Cypress hereby grants to licensee a personal, non-exclusive, non-transferable
  18:Generated_Source\PSoC4/CapSense_Structure.c **** * license to copy, use, modify, create derivative works of, and compile the
  19:Generated_Source\PSoC4/CapSense_Structure.c **** * Cypress Source Code and derivative works for the sole purpose of creating
  20:Generated_Source\PSoC4/CapSense_Structure.c **** * custom software in support of licensee product to be used only in conjunction
  21:Generated_Source\PSoC4/CapSense_Structure.c **** * with a Cypress integrated circuit as specified in the applicable agreement.
  22:Generated_Source\PSoC4/CapSense_Structure.c **** * Any reproduction, modification, translation, compilation, or representation of
  23:Generated_Source\PSoC4/CapSense_Structure.c **** * this software except as specified above is prohibited without the express
  24:Generated_Source\PSoC4/CapSense_Structure.c **** * written permission of Cypress.
  25:Generated_Source\PSoC4/CapSense_Structure.c **** *
  26:Generated_Source\PSoC4/CapSense_Structure.c **** * Disclaimer: CYPRESS MAKES NO WARRANTY OF ANY KIND, EXPRESS OR IMPLIED, WITH
  27:Generated_Source\PSoC4/CapSense_Structure.c **** * REGARD TO THIS MATERIAL, INCLUDING, BUT NOT LIMITED TO, THE IMPLIED
  28:Generated_Source\PSoC4/CapSense_Structure.c **** * WARRANTIES OF MERCHANTABILITY AND FITNESS FOR A PARTICULAR PURPOSE.
  29:Generated_Source\PSoC4/CapSense_Structure.c **** * Cypress reserves the right to make changes without further notice to the
  30:Generated_Source\PSoC4/CapSense_Structure.c **** * materials described herein. Cypress does not assume any liability arising out
  31:Generated_Source\PSoC4/CapSense_Structure.c **** * of the application or use of any product or circuit described herein. Cypress
ARM GAS  C:\Users\Jupiter\AppData\Local\Temp\ccFOAWw4.s 			page 2


  32:Generated_Source\PSoC4/CapSense_Structure.c **** * does not authorize its products for use as critical components in life-support
  33:Generated_Source\PSoC4/CapSense_Structure.c **** * systems where a malfunction or failure may reasonably be expected to result in
  34:Generated_Source\PSoC4/CapSense_Structure.c **** * significant injury to the user. The inclusion of Cypress' product in a life-
  35:Generated_Source\PSoC4/CapSense_Structure.c **** * support systems application implies that the manufacturer assumes all risk of
  36:Generated_Source\PSoC4/CapSense_Structure.c **** * such use and in doing so indemnifies Cypress against all charges. Use may be
  37:Generated_Source\PSoC4/CapSense_Structure.c **** * limited by and subject to the applicable Cypress software license agreement.
  38:Generated_Source\PSoC4/CapSense_Structure.c **** *******************************************************************************/
  39:Generated_Source\PSoC4/CapSense_Structure.c **** 
  40:Generated_Source\PSoC4/CapSense_Structure.c **** #include <cytypes.h>
  41:Generated_Source\PSoC4/CapSense_Structure.c **** #include "CyLib.h"
  42:Generated_Source\PSoC4/CapSense_Structure.c **** #include "CapSense_Structure.h"
  43:Generated_Source\PSoC4/CapSense_Structure.c **** #include "CapSense_Configuration.h"
  44:Generated_Source\PSoC4/CapSense_Structure.c **** 
  45:Generated_Source\PSoC4/CapSense_Structure.c **** #if (0u != CapSense_ADC_EN)
  46:Generated_Source\PSoC4/CapSense_Structure.c ****     #include "CapSense_Adc.h"
  47:Generated_Source\PSoC4/CapSense_Structure.c **** #endif /* (0u != CapSense_ADC_EN) */
  48:Generated_Source\PSoC4/CapSense_Structure.c **** 
  49:Generated_Source\PSoC4/CapSense_Structure.c **** #if (CapSense_ENABLE == CapSense_SELF_TEST_EN)
  50:Generated_Source\PSoC4/CapSense_Structure.c ****     #include "CapSense_SelfTest.h"
  51:Generated_Source\PSoC4/CapSense_Structure.c **** #endif
  52:Generated_Source\PSoC4/CapSense_Structure.c **** 
  53:Generated_Source\PSoC4/CapSense_Structure.c **** #if (CapSense_ENABLE == CapSense_CENTROID_5X5_CSD_EN)
  54:Generated_Source\PSoC4/CapSense_Structure.c ****     #include "CapSense_AdvancedCentroid_LL.h"
  55:Generated_Source\PSoC4/CapSense_Structure.c **** #endif
  56:Generated_Source\PSoC4/CapSense_Structure.c **** 
  57:Generated_Source\PSoC4/CapSense_Structure.c **** #if (CapSense_ENABLE == CapSense_GES_GLOBAL_EN)
  58:Generated_Source\PSoC4/CapSense_Structure.c ****     #include "CapSense_Gesture.h"
  59:Generated_Source\PSoC4/CapSense_Structure.c **** #endif /* (CapSense_ENABLE == CapSense_GES_GLOBAL_EN) */
  60:Generated_Source\PSoC4/CapSense_Structure.c **** 
  61:Generated_Source\PSoC4/CapSense_Structure.c **** /*******************************************************************************
  62:Generated_Source\PSoC4/CapSense_Structure.c **** * Defines the RAM Data Structure variables and their init data in flash
  63:Generated_Source\PSoC4/CapSense_Structure.c **** *******************************************************************************/
  64:Generated_Source\PSoC4/CapSense_Structure.c **** /**
  65:Generated_Source\PSoC4/CapSense_Structure.c **** * \cond SECTION_GLOBAL_VARIABLES
  66:Generated_Source\PSoC4/CapSense_Structure.c **** * \addtogroup group_global_variables
  67:Generated_Source\PSoC4/CapSense_Structure.c **** * \{
  68:Generated_Source\PSoC4/CapSense_Structure.c **** */
  69:Generated_Source\PSoC4/CapSense_Structure.c **** 
  70:Generated_Source\PSoC4/CapSense_Structure.c **** /**
  71:Generated_Source\PSoC4/CapSense_Structure.c **** * The variable that contains the CapSense configuration, settings and
  72:Generated_Source\PSoC4/CapSense_Structure.c **** * scanning results. CapSense_dsRam represents RAM Data Structure.
  73:Generated_Source\PSoC4/CapSense_Structure.c **** */
  74:Generated_Source\PSoC4/CapSense_Structure.c **** CapSense_RAM_STRUCT CapSense_dsRam;
  75:Generated_Source\PSoC4/CapSense_Structure.c **** /** \}
  76:Generated_Source\PSoC4/CapSense_Structure.c **** * \endcond */
  77:Generated_Source\PSoC4/CapSense_Structure.c **** 
  78:Generated_Source\PSoC4/CapSense_Structure.c **** /*******************************************************************************
  79:Generated_Source\PSoC4/CapSense_Structure.c **** * Declares Widget's De-bounce Counters
  80:Generated_Source\PSoC4/CapSense_Structure.c **** *******************************************************************************/
  81:Generated_Source\PSoC4/CapSense_Structure.c **** static uint8 CapSense_debounceButton0[CapSense_BUTTON0_NUM_SENSORS];
  82:Generated_Source\PSoC4/CapSense_Structure.c **** static uint8 CapSense_debounceButton1[CapSense_BUTTON1_NUM_SENSORS];
  83:Generated_Source\PSoC4/CapSense_Structure.c **** 
  84:Generated_Source\PSoC4/CapSense_Structure.c **** 
  85:Generated_Source\PSoC4/CapSense_Structure.c **** /***************************************************************************//**
  86:Generated_Source\PSoC4/CapSense_Structure.c **** * Declares Noise Envelope data structures
  87:Generated_Source\PSoC4/CapSense_Structure.c **** *******************************************************************************/
  88:Generated_Source\PSoC4/CapSense_Structure.c **** static SMARTSENSE_CSD_NOISE_ENVELOPE_STRUCT CapSense_noiseEnvlpButton0[CapSense_BUTTON0_NUM_SENSORS
ARM GAS  C:\Users\Jupiter\AppData\Local\Temp\ccFOAWw4.s 			page 3


  89:Generated_Source\PSoC4/CapSense_Structure.c **** static SMARTSENSE_CSD_NOISE_ENVELOPE_STRUCT CapSense_noiseEnvlpButton1[CapSense_BUTTON1_NUM_SENSORS
  90:Generated_Source\PSoC4/CapSense_Structure.c **** 
  91:Generated_Source\PSoC4/CapSense_Structure.c **** /*******************************************************************************
  92:Generated_Source\PSoC4/CapSense_Structure.c **** * Defines and initializes the Flash Data Structure
  93:Generated_Source\PSoC4/CapSense_Structure.c **** *******************************************************************************/
  94:Generated_Source\PSoC4/CapSense_Structure.c **** 
  95:Generated_Source\PSoC4/CapSense_Structure.c **** 
  96:Generated_Source\PSoC4/CapSense_Structure.c **** 
  97:Generated_Source\PSoC4/CapSense_Structure.c **** /**
  98:Generated_Source\PSoC4/CapSense_Structure.c **** * \cond SECTION_API_CONSTANTS
  99:Generated_Source\PSoC4/CapSense_Structure.c **** * \addtogroup group_api_constants
 100:Generated_Source\PSoC4/CapSense_Structure.c **** * \{
 101:Generated_Source\PSoC4/CapSense_Structure.c **** */
 102:Generated_Source\PSoC4/CapSense_Structure.c **** /**
 103:Generated_Source\PSoC4/CapSense_Structure.c **** * Constant for the FLASH Data Structure
 104:Generated_Source\PSoC4/CapSense_Structure.c **** */
 105:Generated_Source\PSoC4/CapSense_Structure.c **** const CapSense_FLASH_STRUCT CapSense_dsFlash =
 106:Generated_Source\PSoC4/CapSense_Structure.c **** {
 107:Generated_Source\PSoC4/CapSense_Structure.c ****     /* Flash Widget Initialization Data */
 108:Generated_Source\PSoC4/CapSense_Structure.c ****     {
 109:Generated_Source\PSoC4/CapSense_Structure.c ****         { /* Button0 */
 110:Generated_Source\PSoC4/CapSense_Structure.c ****             &CapSense_ioList[0u],
 111:Generated_Source\PSoC4/CapSense_Structure.c ****             (void *)&CapSense_dsRam.wdgtList.button0,
 112:Generated_Source\PSoC4/CapSense_Structure.c ****             CapSense_dsRam.snsList.button0,
 113:Generated_Source\PSoC4/CapSense_Structure.c ****             (void *)0u,
 114:Generated_Source\PSoC4/CapSense_Structure.c ****             CapSense_debounceButton0,
 115:Generated_Source\PSoC4/CapSense_Structure.c ****             CapSense_BUTTON0_STATIC_CONFIG,
 116:Generated_Source\PSoC4/CapSense_Structure.c ****             CapSense_BUTTON0_NUM_SENSORS,
 117:Generated_Source\PSoC4/CapSense_Structure.c ****             (uint8)CapSense_WD_BUTTON_E,
 118:Generated_Source\PSoC4/CapSense_Structure.c ****             CapSense_BUTTON0_NUM_SENSORS,
 119:Generated_Source\PSoC4/CapSense_Structure.c ****             CapSense_noiseEnvlpButton0,
 120:Generated_Source\PSoC4/CapSense_Structure.c ****         },
 121:Generated_Source\PSoC4/CapSense_Structure.c ****         { /* Button1 */
 122:Generated_Source\PSoC4/CapSense_Structure.c ****             &CapSense_ioList[1u],
 123:Generated_Source\PSoC4/CapSense_Structure.c ****             (void *)&CapSense_dsRam.wdgtList.button1,
 124:Generated_Source\PSoC4/CapSense_Structure.c ****             CapSense_dsRam.snsList.button1,
 125:Generated_Source\PSoC4/CapSense_Structure.c ****             (void *)0u,
 126:Generated_Source\PSoC4/CapSense_Structure.c ****             CapSense_debounceButton1,
 127:Generated_Source\PSoC4/CapSense_Structure.c ****             CapSense_BUTTON1_STATIC_CONFIG,
 128:Generated_Source\PSoC4/CapSense_Structure.c ****             CapSense_BUTTON1_NUM_SENSORS,
 129:Generated_Source\PSoC4/CapSense_Structure.c ****             (uint8)CapSense_WD_BUTTON_E,
 130:Generated_Source\PSoC4/CapSense_Structure.c ****             CapSense_BUTTON1_NUM_SENSORS,
 131:Generated_Source\PSoC4/CapSense_Structure.c ****             CapSense_noiseEnvlpButton1,
 132:Generated_Source\PSoC4/CapSense_Structure.c ****         },
 133:Generated_Source\PSoC4/CapSense_Structure.c ****     },
 134:Generated_Source\PSoC4/CapSense_Structure.c **** };
 135:Generated_Source\PSoC4/CapSense_Structure.c **** 
 136:Generated_Source\PSoC4/CapSense_Structure.c **** /**
 137:Generated_Source\PSoC4/CapSense_Structure.c **** * The array of the pointers to the electrode specific register.
 138:Generated_Source\PSoC4/CapSense_Structure.c **** */
 139:Generated_Source\PSoC4/CapSense_Structure.c **** const CapSense_FLASH_IO_STRUCT CapSense_ioList[CapSense_TOTAL_ELECTRODES] =
 140:Generated_Source\PSoC4/CapSense_Structure.c **** {
 141:Generated_Source\PSoC4/CapSense_Structure.c ****     { /* 0: Button0_Sns0 */
 142:Generated_Source\PSoC4/CapSense_Structure.c ****         (reg32 *)CapSense_Sns__0__HSIOM,
 143:Generated_Source\PSoC4/CapSense_Structure.c ****         (reg32 *)CapSense_Sns__0__PC,
 144:Generated_Source\PSoC4/CapSense_Structure.c ****         (reg32 *)CapSense_Sns__0__DR,
 145:Generated_Source\PSoC4/CapSense_Structure.c ****         (reg32 *)CapSense_Sns__0__PS,
ARM GAS  C:\Users\Jupiter\AppData\Local\Temp\ccFOAWw4.s 			page 4


 146:Generated_Source\PSoC4/CapSense_Structure.c ****         CapSense_Sns__0__HSIOM_MASK,
 147:Generated_Source\PSoC4/CapSense_Structure.c ****         CapSense_Sns__0__MASK,
 148:Generated_Source\PSoC4/CapSense_Structure.c ****         CapSense_Sns__0__HSIOM_SHIFT,
 149:Generated_Source\PSoC4/CapSense_Structure.c ****         (uint8)CapSense_Sns__0__SHIFT,
 150:Generated_Source\PSoC4/CapSense_Structure.c ****         (uint8)CapSense_Sns__0__SHIFT * 3u,
 151:Generated_Source\PSoC4/CapSense_Structure.c ****     },
 152:Generated_Source\PSoC4/CapSense_Structure.c ****     { /* 1: Button1_Sns0 */
 153:Generated_Source\PSoC4/CapSense_Structure.c ****         (reg32 *)CapSense_Sns__1__HSIOM,
 154:Generated_Source\PSoC4/CapSense_Structure.c ****         (reg32 *)CapSense_Sns__1__PC,
 155:Generated_Source\PSoC4/CapSense_Structure.c ****         (reg32 *)CapSense_Sns__1__DR,
 156:Generated_Source\PSoC4/CapSense_Structure.c ****         (reg32 *)CapSense_Sns__1__PS,
 157:Generated_Source\PSoC4/CapSense_Structure.c ****         CapSense_Sns__1__HSIOM_MASK,
 158:Generated_Source\PSoC4/CapSense_Structure.c ****         CapSense_Sns__1__MASK,
 159:Generated_Source\PSoC4/CapSense_Structure.c ****         CapSense_Sns__1__HSIOM_SHIFT,
 160:Generated_Source\PSoC4/CapSense_Structure.c ****         (uint8)CapSense_Sns__1__SHIFT,
 161:Generated_Source\PSoC4/CapSense_Structure.c ****         (uint8)CapSense_Sns__1__SHIFT * 3u,
 162:Generated_Source\PSoC4/CapSense_Structure.c ****     },
 163:Generated_Source\PSoC4/CapSense_Structure.c **** };
 164:Generated_Source\PSoC4/CapSense_Structure.c **** 
 165:Generated_Source\PSoC4/CapSense_Structure.c **** 
 166:Generated_Source\PSoC4/CapSense_Structure.c **** 
 167:Generated_Source\PSoC4/CapSense_Structure.c **** /** \}
 168:Generated_Source\PSoC4/CapSense_Structure.c **** * \endcond */
 169:Generated_Source\PSoC4/CapSense_Structure.c **** 
 170:Generated_Source\PSoC4/CapSense_Structure.c **** /* Initialization data for RAM widget list */
 171:Generated_Source\PSoC4/CapSense_Structure.c **** const CapSense_RAM_WD_LIST_STRUCT CapSense_ramWidgetInit =
 172:Generated_Source\PSoC4/CapSense_Structure.c **** {
 173:Generated_Source\PSoC4/CapSense_Structure.c ****     { /* Button0 */
 174:Generated_Source\PSoC4/CapSense_Structure.c ****         CapSense_BUTTON0_RESOLUTION,
 175:Generated_Source\PSoC4/CapSense_Structure.c ****         CapSense_BUTTON0_FINGER_TH,
 176:Generated_Source\PSoC4/CapSense_Structure.c ****         CapSense_BUTTON0_NOISE_TH,
 177:Generated_Source\PSoC4/CapSense_Structure.c ****         CapSense_BUTTON0_NNOISE_TH,
 178:Generated_Source\PSoC4/CapSense_Structure.c ****         CapSense_BUTTON0_HYSTERESIS,
 179:Generated_Source\PSoC4/CapSense_Structure.c ****         CapSense_BUTTON0_ON_DEBOUNCE,
 180:Generated_Source\PSoC4/CapSense_Structure.c ****         CapSense_BUTTON0_LOW_BSLN_RST,
 181:Generated_Source\PSoC4/CapSense_Structure.c ****         {
 182:Generated_Source\PSoC4/CapSense_Structure.c ****             CapSense_BUTTON0_IDAC_MOD0,
 183:Generated_Source\PSoC4/CapSense_Structure.c ****         },
 184:Generated_Source\PSoC4/CapSense_Structure.c ****         CapSense_BUTTON0_IDAC_GAIN_INDEX,
 185:Generated_Source\PSoC4/CapSense_Structure.c ****         CapSense_BUTTON0_SNS_CLK,
 186:Generated_Source\PSoC4/CapSense_Structure.c ****         CapSense_BUTTON0_SNS_CLK_SOURCE,
 187:Generated_Source\PSoC4/CapSense_Structure.c ****         CapSense_BUTTON0_FINGER_CAP,
 188:Generated_Source\PSoC4/CapSense_Structure.c ****         CapSense_BUTTON0_SIGPFC,
 189:Generated_Source\PSoC4/CapSense_Structure.c ****     },
 190:Generated_Source\PSoC4/CapSense_Structure.c ****     { /* Button1 */
 191:Generated_Source\PSoC4/CapSense_Structure.c ****         CapSense_BUTTON1_RESOLUTION,
 192:Generated_Source\PSoC4/CapSense_Structure.c ****         CapSense_BUTTON1_FINGER_TH,
 193:Generated_Source\PSoC4/CapSense_Structure.c ****         CapSense_BUTTON1_NOISE_TH,
 194:Generated_Source\PSoC4/CapSense_Structure.c ****         CapSense_BUTTON1_NNOISE_TH,
 195:Generated_Source\PSoC4/CapSense_Structure.c ****         CapSense_BUTTON1_HYSTERESIS,
 196:Generated_Source\PSoC4/CapSense_Structure.c ****         CapSense_BUTTON1_ON_DEBOUNCE,
 197:Generated_Source\PSoC4/CapSense_Structure.c ****         CapSense_BUTTON1_LOW_BSLN_RST,
 198:Generated_Source\PSoC4/CapSense_Structure.c ****         {
 199:Generated_Source\PSoC4/CapSense_Structure.c ****             CapSense_BUTTON1_IDAC_MOD0,
 200:Generated_Source\PSoC4/CapSense_Structure.c ****         },
 201:Generated_Source\PSoC4/CapSense_Structure.c ****         CapSense_BUTTON1_IDAC_GAIN_INDEX,
 202:Generated_Source\PSoC4/CapSense_Structure.c ****         CapSense_BUTTON1_SNS_CLK,
ARM GAS  C:\Users\Jupiter\AppData\Local\Temp\ccFOAWw4.s 			page 5


 203:Generated_Source\PSoC4/CapSense_Structure.c ****         CapSense_BUTTON1_SNS_CLK_SOURCE,
 204:Generated_Source\PSoC4/CapSense_Structure.c ****         CapSense_BUTTON1_FINGER_CAP,
 205:Generated_Source\PSoC4/CapSense_Structure.c ****         CapSense_BUTTON1_SIGPFC,
 206:Generated_Source\PSoC4/CapSense_Structure.c ****     },
 207:Generated_Source\PSoC4/CapSense_Structure.c **** };
 208:Generated_Source\PSoC4/CapSense_Structure.c **** 
 209:Generated_Source\PSoC4/CapSense_Structure.c **** 
 210:Generated_Source\PSoC4/CapSense_Structure.c **** /* IDAC Initialization Data */
 211:Generated_Source\PSoC4/CapSense_Structure.c **** const uint8 CapSense_ramIdacInit[CapSense_TOTAL_SENSORS] =
 212:Generated_Source\PSoC4/CapSense_Structure.c **** {
 213:Generated_Source\PSoC4/CapSense_Structure.c ****     /* Button0 */
 214:Generated_Source\PSoC4/CapSense_Structure.c ****     CapSense_BUTTON0_SNS0_IDAC_COMP0,
 215:Generated_Source\PSoC4/CapSense_Structure.c **** 
 216:Generated_Source\PSoC4/CapSense_Structure.c ****     /* Button1 */
 217:Generated_Source\PSoC4/CapSense_Structure.c ****     CapSense_BUTTON1_SNS0_IDAC_COMP0,
 218:Generated_Source\PSoC4/CapSense_Structure.c **** };
 219:Generated_Source\PSoC4/CapSense_Structure.c **** 
 220:Generated_Source\PSoC4/CapSense_Structure.c **** 
 221:Generated_Source\PSoC4/CapSense_Structure.c **** 
 222:Generated_Source\PSoC4/CapSense_Structure.c **** 
 223:Generated_Source\PSoC4/CapSense_Structure.c **** 
 224:Generated_Source\PSoC4/CapSense_Structure.c **** /*******************************************************************************
 225:Generated_Source\PSoC4/CapSense_Structure.c **** * Defines internal data types and statements
 226:Generated_Source\PSoC4/CapSense_Structure.c **** *******************************************************************************/
 227:Generated_Source\PSoC4/CapSense_Structure.c **** #define PARAM_TYPE_OFFSET       (30u)
 228:Generated_Source\PSoC4/CapSense_Structure.c **** #define PARAM_TYPE_MASK         (3Lu << PARAM_TYPE_OFFSET)
 229:Generated_Source\PSoC4/CapSense_Structure.c **** #define PARAM_RWBIT_OFFSET      (29u)
 230:Generated_Source\PSoC4/CapSense_Structure.c **** #define PARAM_RWBIT_MASK        (1Lu << PARAM_RWBIT_OFFSET)
 231:Generated_Source\PSoC4/CapSense_Structure.c **** #define PARAM_FBIT_OFFSET       (28u)
 232:Generated_Source\PSoC4/CapSense_Structure.c **** #define PARAM_FBIT_MASK         (1Lu << PARAM_FBIT_OFFSET)
 233:Generated_Source\PSoC4/CapSense_Structure.c **** #define PARAM_UBIT_OFFSET       (23u)
 234:Generated_Source\PSoC4/CapSense_Structure.c **** #define PARAM_UBIT_MASK         (1Lu << PARAM_UBIT_OFFSET)
 235:Generated_Source\PSoC4/CapSense_Structure.c **** #define PARAM_WDID_OFFSET       (16u)
 236:Generated_Source\PSoC4/CapSense_Structure.c **** #define PARAM_WDID_MASK         (0x7FLu << PARAM_WDID_OFFSET)
 237:Generated_Source\PSoC4/CapSense_Structure.c **** #define PARAM_CRC_OFFSET        (24u)
 238:Generated_Source\PSoC4/CapSense_Structure.c **** #define PARAM_CRC_MASK          (0x0FLu << PARAM_CRC_OFFSET)
 239:Generated_Source\PSoC4/CapSense_Structure.c **** 
 240:Generated_Source\PSoC4/CapSense_Structure.c **** /* Defines align masks for uint16 and uint32 */
 241:Generated_Source\PSoC4/CapSense_Structure.c **** #define UINT16_ALIGN_MASK       (1Lu)
 242:Generated_Source\PSoC4/CapSense_Structure.c **** #define UINT32_ALIGN_MASK       (3Lu)
 243:Generated_Source\PSoC4/CapSense_Structure.c **** 
 244:Generated_Source\PSoC4/CapSense_Structure.c **** /* Defines supported parameter types */
 245:Generated_Source\PSoC4/CapSense_Structure.c **** #define DS_PARAM_TYPE_UINT8     (0x01u)
 246:Generated_Source\PSoC4/CapSense_Structure.c **** #define DS_PARAM_TYPE_UINT16    (0x02u)
 247:Generated_Source\PSoC4/CapSense_Structure.c **** #define DS_PARAM_TYPE_UINT32    (0x03u)
 248:Generated_Source\PSoC4/CapSense_Structure.c **** 
 249:Generated_Source\PSoC4/CapSense_Structure.c **** 
 250:Generated_Source\PSoC4/CapSense_Structure.c **** /* Defines PARAM_ID structure */
 251:Generated_Source\PSoC4/CapSense_Structure.c **** typedef struct
 252:Generated_Source\PSoC4/CapSense_Structure.c **** {
 253:Generated_Source\PSoC4/CapSense_Structure.c ****     uint16 offset;      /* parameter offset */
 254:Generated_Source\PSoC4/CapSense_Structure.c ****     uint8  widgetId;    /* widget Id parameter belongs to */
 255:Generated_Source\PSoC4/CapSense_Structure.c ****     uint8  affectsCrc;  /* parameter affects widget CRC */
 256:Generated_Source\PSoC4/CapSense_Structure.c ****     uint8  crc;         /* parameter CRC */
 257:Generated_Source\PSoC4/CapSense_Structure.c ****     uint8  flash;       /* parameter located in FLASH flag */
 258:Generated_Source\PSoC4/CapSense_Structure.c ****     uint8  rw;          /* parameter is read/write flag */
 259:Generated_Source\PSoC4/CapSense_Structure.c ****     uint8  type;        /* parameter type: uint8/uint16/uint32 */
ARM GAS  C:\Users\Jupiter\AppData\Local\Temp\ccFOAWw4.s 			page 6


 260:Generated_Source\PSoC4/CapSense_Structure.c **** } PARAM_ID_STRUCT;
 261:Generated_Source\PSoC4/CapSense_Structure.c **** 
 262:Generated_Source\PSoC4/CapSense_Structure.c **** 
 263:Generated_Source\PSoC4/CapSense_Structure.c **** /*******************************************************************************
 264:Generated_Source\PSoC4/CapSense_Structure.c **** * Static Function Prototypes
 265:Generated_Source\PSoC4/CapSense_Structure.c **** *******************************************************************************/
 266:Generated_Source\PSoC4/CapSense_Structure.c **** /**
 267:Generated_Source\PSoC4/CapSense_Structure.c **** * \cond SECTION_C_INTERNAL
 268:Generated_Source\PSoC4/CapSense_Structure.c **** * \addtogroup group_c_internal
 269:Generated_Source\PSoC4/CapSense_Structure.c **** * \{
 270:Generated_Source\PSoC4/CapSense_Structure.c **** */
 271:Generated_Source\PSoC4/CapSense_Structure.c **** 
 272:Generated_Source\PSoC4/CapSense_Structure.c **** 
 273:Generated_Source\PSoC4/CapSense_Structure.c **** 
 274:Generated_Source\PSoC4/CapSense_Structure.c **** static cystatus DsParseParamId(uint32 paramId, PARAM_ID_STRUCT *pData);
 275:Generated_Source\PSoC4/CapSense_Structure.c **** 
 276:Generated_Source\PSoC4/CapSense_Structure.c **** /** \}
 277:Generated_Source\PSoC4/CapSense_Structure.c **** * \endcond */
 278:Generated_Source\PSoC4/CapSense_Structure.c **** 
 279:Generated_Source\PSoC4/CapSense_Structure.c **** 
 280:Generated_Source\PSoC4/CapSense_Structure.c **** /*******************************************************************************
 281:Generated_Source\PSoC4/CapSense_Structure.c **** * Function Name: CapSense_DsInitialize
 282:Generated_Source\PSoC4/CapSense_Structure.c **** ****************************************************************************//**
 283:Generated_Source\PSoC4/CapSense_Structure.c **** *
 284:Generated_Source\PSoC4/CapSense_Structure.c **** * \brief
 285:Generated_Source\PSoC4/CapSense_Structure.c **** *   This function initializes the Data Structure storage.
 286:Generated_Source\PSoC4/CapSense_Structure.c **** *
 287:Generated_Source\PSoC4/CapSense_Structure.c **** * \details
 288:Generated_Source\PSoC4/CapSense_Structure.c **** *   This function copies the default widget configuration parameters
 289:Generated_Source\PSoC4/CapSense_Structure.c **** *   from the Flash storage into the RAM Data Structure.
 290:Generated_Source\PSoC4/CapSense_Structure.c **** *
 291:Generated_Source\PSoC4/CapSense_Structure.c **** *******************************************************************************/
 292:Generated_Source\PSoC4/CapSense_Structure.c **** void CapSense_DsInitialize(void)
 293:Generated_Source\PSoC4/CapSense_Structure.c **** {
 294:Generated_Source\PSoC4/CapSense_Structure.c ****     #if ((CapSense_ENABLE == CapSense_CSX_EN) || \
 295:Generated_Source\PSoC4/CapSense_Structure.c ****          (CapSense_ENABLE == CapSense_CSD_IDAC_COMP_EN) || \
 296:Generated_Source\PSoC4/CapSense_Structure.c ****         ((CapSense_ENABLE == CapSense_CSX_EN) && \
 297:Generated_Source\PSoC4/CapSense_Structure.c ****          (CapSense_ENABLE == CapSense_CSX_SKIP_OVSMPL_SPECIFIC_NODES)))
 298:Generated_Source\PSoC4/CapSense_Structure.c ****         uint32 snsId;
 299:Generated_Source\PSoC4/CapSense_Structure.c ****         uint32 wdgtId;
 300:Generated_Source\PSoC4/CapSense_Structure.c ****         CapSense_RAM_SNS_STRUCT * ptrSnsTmp;
 301:Generated_Source\PSoC4/CapSense_Structure.c ****         CapSense_FLASH_WD_STRUCT const * ptrFlashWdgt;
 302:Generated_Source\PSoC4/CapSense_Structure.c ****     #endif
 303:Generated_Source\PSoC4/CapSense_Structure.c **** 
 304:Generated_Source\PSoC4/CapSense_Structure.c ****     #if ((CapSense_ENABLE == CapSense_CSX_EN) && \
 305:Generated_Source\PSoC4/CapSense_Structure.c ****          (CapSense_ENABLE == CapSense_CSX_SKIP_OVSMPL_SPECIFIC_NODES))
 306:Generated_Source\PSoC4/CapSense_Structure.c ****         uint16 subConvNumber;
 307:Generated_Source\PSoC4/CapSense_Structure.c ****     #endif
 308:Generated_Source\PSoC4/CapSense_Structure.c **** 
 309:Generated_Source\PSoC4/CapSense_Structure.c ****     #if ((0u != CapSense_CSX_EN) || (0 != CapSense_CSD_IDAC_COMP_EN))
 310:Generated_Source\PSoC4/CapSense_Structure.c ****         uint8 const * ptrIdacInit = CapSense_ramIdacInit;
 311:Generated_Source\PSoC4/CapSense_Structure.c ****     #endif
 312:Generated_Source\PSoC4/CapSense_Structure.c **** 
 313:Generated_Source\PSoC4/CapSense_Structure.c ****     /* Reset RAM data structure content */
 314:Generated_Source\PSoC4/CapSense_Structure.c ****     (void)memset(&CapSense_dsRam, 0, sizeof(CapSense_dsRam));
 315:Generated_Source\PSoC4/CapSense_Structure.c **** 
 316:Generated_Source\PSoC4/CapSense_Structure.c ****     /* Initialize configId, deviceId and hwClock registers */
ARM GAS  C:\Users\Jupiter\AppData\Local\Temp\ccFOAWw4.s 			page 7


 317:Generated_Source\PSoC4/CapSense_Structure.c ****     CapSense_dsRam.configId = CapSense_CONFIG_ID;
 318:Generated_Source\PSoC4/CapSense_Structure.c ****     CapSense_dsRam.deviceId = CapSense_DEVICE_ID;
 319:Generated_Source\PSoC4/CapSense_Structure.c ****     CapSense_dsRam.hwClock = CapSense_HW_CLOCK;
 320:Generated_Source\PSoC4/CapSense_Structure.c **** 
 321:Generated_Source\PSoC4/CapSense_Structure.c ****     /* Initialize global RAM data */
 322:Generated_Source\PSoC4/CapSense_Structure.c ****     CapSense_dsRam.csd0Config = CapSense_CSD0_CONFIG;
 323:Generated_Source\PSoC4/CapSense_Structure.c **** 
 324:Generated_Source\PSoC4/CapSense_Structure.c ****     CapSense_dsRam.scanCurrentISC = CapSense_SNS_CONNECTION_UNDEFINED;
 325:Generated_Source\PSoC4/CapSense_Structure.c ****     #if (0u != CapSense_TOTAL_CSD_WIDGETS)
 326:Generated_Source\PSoC4/CapSense_Structure.c ****         CapSense_dsRam.modCsdClk = CapSense_CSD_SCANSPEED_DIVIDER;
 327:Generated_Source\PSoC4/CapSense_Structure.c ****         CapSense_dsRam.scanCsdISC = CapSense_CSD_INACTIVE_SNS_CONNECTION;
 328:Generated_Source\PSoC4/CapSense_Structure.c **** 
 329:Generated_Source\PSoC4/CapSense_Structure.c ****         #if (0u != CapSense_CSD_COMMON_SNS_CLK_EN)
 330:Generated_Source\PSoC4/CapSense_Structure.c ****             CapSense_dsRam.snsCsdClk = CapSense_CSD_SNS_CLK_DIVIDER;
 331:Generated_Source\PSoC4/CapSense_Structure.c ****         #endif /* #if (0u != CapSense_CSD_COMMON_SNS_CLK_EN) */
 332:Generated_Source\PSoC4/CapSense_Structure.c ****     #endif /* #if (0u != CapSense_TOTAL_CSD_WIDGETS) */
 333:Generated_Source\PSoC4/CapSense_Structure.c **** 
 334:Generated_Source\PSoC4/CapSense_Structure.c ****     #if (CapSense_ENABLE == CapSense_CSX_EN)
 335:Generated_Source\PSoC4/CapSense_Structure.c ****         CapSense_dsRam.modCsxClk = CapSense_CSX_SCANSPEED_DIVIDER;
 336:Generated_Source\PSoC4/CapSense_Structure.c ****         CapSense_dsRam.scanCsxISC = CapSense_CSX_INACTIVE_SNS_CONNECTION;
 337:Generated_Source\PSoC4/CapSense_Structure.c **** 
 338:Generated_Source\PSoC4/CapSense_Structure.c ****         #if (0u != CapSense_CSX_COMMON_TX_CLK_EN)
 339:Generated_Source\PSoC4/CapSense_Structure.c ****             CapSense_dsRam.snsCsxClk = CapSense_CSX_TX_CLK_DIVIDER;
 340:Generated_Source\PSoC4/CapSense_Structure.c ****         #endif /* #if (0u != CapSense_CSX_COMMON_TX_CLK_EN) */
 341:Generated_Source\PSoC4/CapSense_Structure.c ****     #endif /* #if (CapSense_ENABLE == CapSense_CSX_EN) */
 342:Generated_Source\PSoC4/CapSense_Structure.c **** 
 343:Generated_Source\PSoC4/CapSense_Structure.c ****     #if (CapSense_ENABLE == CapSense_ISX_EN)
 344:Generated_Source\PSoC4/CapSense_Structure.c ****         CapSense_dsRam.modIsxClk = CapSense_ISX_SCANSPEED_DIVIDER;
 345:Generated_Source\PSoC4/CapSense_Structure.c ****     #endif /* #if (0u != CapSense_ISX_EN) */
 346:Generated_Source\PSoC4/CapSense_Structure.c **** 
 347:Generated_Source\PSoC4/CapSense_Structure.c ****     #if (0u != CapSense_SELF_TEST_EN)
 348:Generated_Source\PSoC4/CapSense_Structure.c **** 
 349:Generated_Source\PSoC4/CapSense_Structure.c ****         CapSense_dsRam.glbCrc = CapSense_GLB_CRC;
 350:Generated_Source\PSoC4/CapSense_Structure.c ****         CapSense_dsRam.selfTestConfig.fineInitTime = (uint8)CapSense_TST_FINE_INIT_TIME;
 351:Generated_Source\PSoC4/CapSense_Structure.c ****         CapSense_dsRam.selfTestConfig.startupDelay = CapSense_TST_ANALOG_STARTUP_DELAY_US;
 352:Generated_Source\PSoC4/CapSense_Structure.c **** 
 353:Generated_Source\PSoC4/CapSense_Structure.c ****         #if (0u != CapSense_TST_SNS_SHORT_EN)
 354:Generated_Source\PSoC4/CapSense_Structure.c ****             CapSense_dsRam.selfTestConfig.snsShortTimeUs = CapSense_TST_SNS_SHORT_TIME;
 355:Generated_Source\PSoC4/CapSense_Structure.c ****         #endif
 356:Generated_Source\PSoC4/CapSense_Structure.c **** 
 357:Generated_Source\PSoC4/CapSense_Structure.c ****         #if ((0u != CapSense_TST_SNS_CAP_EN) ||\
 358:Generated_Source\PSoC4/CapSense_Structure.c ****              (0u != CapSense_TST_SH_CAP_EN))
 359:Generated_Source\PSoC4/CapSense_Structure.c ****             CapSense_dsRam.selfTestConfig.snsCapSnsClkDivider = CapSense_TST_SNS_CAP_SNS_CLK_DIVIDE
 360:Generated_Source\PSoC4/CapSense_Structure.c ****             CapSense_dsRam.selfTestConfig.snsCapSnsClkHz = CapSense_TST_SNS_CAP_SNS_CLK_HZ;
 361:Generated_Source\PSoC4/CapSense_Structure.c ****             CapSense_dsRam.selfTestConfig.snsCapResolution = CapSense_TST_SNS_CAP_RESOLUTION;
 362:Generated_Source\PSoC4/CapSense_Structure.c ****             CapSense_dsRam.selfTestConfig.snsCapVrefGain = CapSense_TST_SNS_CAP_VREF_GAIN ;
 363:Generated_Source\PSoC4/CapSense_Structure.c ****             CapSense_dsRam.selfTestConfig.snsCapVrefVoltage = CapSense_TST_SNS_CAP_VREF_MV;
 364:Generated_Source\PSoC4/CapSense_Structure.c ****             CapSense_dsRam.selfTestConfig.snsCapModClkDivider = CapSense_TST_MOD_CLK_DIVIDER ;
 365:Generated_Source\PSoC4/CapSense_Structure.c ****             CapSense_dsRam.selfTestConfig.snsCapModClkKHz = CapSense_TST_MOD_CLK_KHZ ;
 366:Generated_Source\PSoC4/CapSense_Structure.c ****         #endif /* ((0u != CapSense_TST_SNS_CAP_EN) ||
 367:Generated_Source\PSoC4/CapSense_Structure.c ****                    (0u != CapSense_TST_SH_CAP_EN)) */
 368:Generated_Source\PSoC4/CapSense_Structure.c **** 
 369:Generated_Source\PSoC4/CapSense_Structure.c ****         #if (0u != CapSense_TST_SNS_CAP_EN)
 370:Generated_Source\PSoC4/CapSense_Structure.c ****             #if (0u != CapSense_CSD_EN)
 371:Generated_Source\PSoC4/CapSense_Structure.c ****                 CapSense_dsRam.selfTestConfig.bistCsdSnsCapISC = CapSense_SNS_CAP_CSD_INACTIVE_CONN
 372:Generated_Source\PSoC4/CapSense_Structure.c ****             #endif /* (0u != CapSense_CSD_EN) */
 373:Generated_Source\PSoC4/CapSense_Structure.c ****             #if (0u != CapSense_CSX_EN)
ARM GAS  C:\Users\Jupiter\AppData\Local\Temp\ccFOAWw4.s 			page 8


 374:Generated_Source\PSoC4/CapSense_Structure.c ****                 CapSense_dsRam.selfTestConfig.bistCsxSnsCapISC = CapSense_SNS_CAP_CSX_INACTIVE_CONN
 375:Generated_Source\PSoC4/CapSense_Structure.c ****             #endif /* (0u != CapSense_CSX_EN) */
 376:Generated_Source\PSoC4/CapSense_Structure.c ****         #endif /* (0u != CapSense_TST_SNS_CAP_EN) */
 377:Generated_Source\PSoC4/CapSense_Structure.c **** 
 378:Generated_Source\PSoC4/CapSense_Structure.c ****         #if (0u != CapSense_TST_SH_CAP_EN)
 379:Generated_Source\PSoC4/CapSense_Structure.c ****             #if ((0u != CapSense_CSD_EN) && (0u != CapSense_CSD_SHIELD_EN))
 380:Generated_Source\PSoC4/CapSense_Structure.c ****                 CapSense_dsRam.selfTestConfig.bistCsdShCapISC = CapSense_SHIELD_CAP_INACTIVE_CONNEC
 381:Generated_Source\PSoC4/CapSense_Structure.c ****             #endif /* ((0u != CapSense_CSD_EN) && (0u != CapSense_CSD_SHIELD_EN)) */
 382:Generated_Source\PSoC4/CapSense_Structure.c ****         #endif /* (0u != CapSense_TST_SH_CAP_EN) */
 383:Generated_Source\PSoC4/CapSense_Structure.c **** 
 384:Generated_Source\PSoC4/CapSense_Structure.c ****         #if (0u != CapSense_TST_EXTERNAL_CAP_EN)
 385:Generated_Source\PSoC4/CapSense_Structure.c ****             CapSense_dsRam.selfTestConfig.extCapVrefGain = CapSense_TST_EXT_CAP_VREF_GAIN;
 386:Generated_Source\PSoC4/CapSense_Structure.c ****             CapSense_dsRam.selfTestConfig.extCapVrefVoltage = CapSense_TST_EXT_CAP_VREF_MV;
 387:Generated_Source\PSoC4/CapSense_Structure.c ****         #endif /* #if (0u != CapSense_TST_EXTERNAL_CAP_EN) */
 388:Generated_Source\PSoC4/CapSense_Structure.c **** 
 389:Generated_Source\PSoC4/CapSense_Structure.c ****         #if (0u != CapSense_TST_VDDA_EN)
 390:Generated_Source\PSoC4/CapSense_Structure.c ****             CapSense_dsRam.selfTestConfig.vddaResolution = CapSense_TST_VDDA_RESOLUTION;
 391:Generated_Source\PSoC4/CapSense_Structure.c ****             CapSense_dsRam.selfTestConfig.vddaModClkDivider = CapSense_TST_VDDA_MOD_CLK_DIVIDER;
 392:Generated_Source\PSoC4/CapSense_Structure.c **** 
 393:Generated_Source\PSoC4/CapSense_Structure.c ****             CapSense_dsRam.selfTestConfig.vddaVrefGain = CapSense_TST_VDDA_VREF_GAIN;
 394:Generated_Source\PSoC4/CapSense_Structure.c ****             CapSense_dsRam.selfTestConfig.vddaVrefVoltage = CapSense_TST_VDDA_VREF_MV;
 395:Generated_Source\PSoC4/CapSense_Structure.c ****         #endif /* #if (0u != CapSense_TST_VDDA_EN) */
 396:Generated_Source\PSoC4/CapSense_Structure.c **** 
 397:Generated_Source\PSoC4/CapSense_Structure.c ****     #endif /* #if (0u != CapSense_SELF_TEST_EN) */
 398:Generated_Source\PSoC4/CapSense_Structure.c **** 
 399:Generated_Source\PSoC4/CapSense_Structure.c ****     /* Initialize RAM widget data */
 400:Generated_Source\PSoC4/CapSense_Structure.c ****     CapSense_dsRam.wdgtList = CapSense_ramWidgetInit;
 401:Generated_Source\PSoC4/CapSense_Structure.c **** 
 402:Generated_Source\PSoC4/CapSense_Structure.c ****     /* Initialize Gesture configuration structure */
 403:Generated_Source\PSoC4/CapSense_Structure.c ****     #if ((0u != CapSense_GES_GLOBAL_EN) || (0u != CapSense_BALLISTIC_MULTIPLIER_EN))
 404:Generated_Source\PSoC4/CapSense_Structure.c ****         CapSense_dsRam.timestampInterval = CapSense_TIMESTAMP_INTERVAL;
 405:Generated_Source\PSoC4/CapSense_Structure.c ****     #endif /* ((0u != CapSense_GES_GLOBAL_EN) || (0u != CapSense_BALLISTIC_MULTIPLIER_EN)) */
 406:Generated_Source\PSoC4/CapSense_Structure.c **** 
 407:Generated_Source\PSoC4/CapSense_Structure.c ****     #if (0u != CapSense_GES_GLOBAL_EN)
 408:Generated_Source\PSoC4/CapSense_Structure.c ****         CapSense_dsRam.gestures = CapSense_ramGesturesInit;
 409:Generated_Source\PSoC4/CapSense_Structure.c ****     #endif /* (0u != CapSense_GES_GLOBAL_EN) */
 410:Generated_Source\PSoC4/CapSense_Structure.c **** 
 411:Generated_Source\PSoC4/CapSense_Structure.c ****     #if (0u != CapSense_BALLISTIC_MULTIPLIER_EN)
 412:Generated_Source\PSoC4/CapSense_Structure.c ****         CapSense_dsRam.ballisticConfig = CapSense_ramBallisticInit;
 413:Generated_Source\PSoC4/CapSense_Structure.c ****     #endif /* (0u != CapSense_BALLISTIC_MULTIPLIER_EN) */
 414:Generated_Source\PSoC4/CapSense_Structure.c **** 
 415:Generated_Source\PSoC4/CapSense_Structure.c ****     #if (0u != CapSense_CSX_EN) || (0 != CapSense_CSD_IDAC_COMP_EN)
 416:Generated_Source\PSoC4/CapSense_Structure.c ****         /* Initialize IDAC data */
 417:Generated_Source\PSoC4/CapSense_Structure.c ****         ptrFlashWdgt = CapSense_dsFlash.wdgtArray;
 418:Generated_Source\PSoC4/CapSense_Structure.c **** 
 419:Generated_Source\PSoC4/CapSense_Structure.c ****         for (wdgtId = CapSense_TOTAL_WIDGETS; wdgtId-- > 0u; )
 420:Generated_Source\PSoC4/CapSense_Structure.c ****         {
 421:Generated_Source\PSoC4/CapSense_Structure.c ****             ptrSnsTmp = ptrFlashWdgt->ptr2SnsRam;
 422:Generated_Source\PSoC4/CapSense_Structure.c **** 
 423:Generated_Source\PSoC4/CapSense_Structure.c ****             for (snsId = CapSense_GET_SNS_CNT_BY_PTR(ptrFlashWdgt); snsId-- > 0u;)
 424:Generated_Source\PSoC4/CapSense_Structure.c ****             {
 425:Generated_Source\PSoC4/CapSense_Structure.c ****                 ptrSnsTmp->idacComp[0u] = *ptrIdacInit;
 426:Generated_Source\PSoC4/CapSense_Structure.c ****                 ptrIdacInit++;
 427:Generated_Source\PSoC4/CapSense_Structure.c **** 
 428:Generated_Source\PSoC4/CapSense_Structure.c ****                 #if (0u != CapSense_MULTI_FREQ_SCAN_EN)
 429:Generated_Source\PSoC4/CapSense_Structure.c ****                     ptrSnsTmp->idacComp[1u] = *ptrIdacInit;
 430:Generated_Source\PSoC4/CapSense_Structure.c ****                     ptrIdacInit++;
ARM GAS  C:\Users\Jupiter\AppData\Local\Temp\ccFOAWw4.s 			page 9


 431:Generated_Source\PSoC4/CapSense_Structure.c **** 
 432:Generated_Source\PSoC4/CapSense_Structure.c ****                     ptrSnsTmp->idacComp[2u] = *ptrIdacInit;
 433:Generated_Source\PSoC4/CapSense_Structure.c ****                     ptrIdacInit++;
 434:Generated_Source\PSoC4/CapSense_Structure.c ****                 #endif /* #if (0u != CapSense_MULTI_FREQ_SCAN_EN) */
 435:Generated_Source\PSoC4/CapSense_Structure.c **** 
 436:Generated_Source\PSoC4/CapSense_Structure.c ****                 ptrSnsTmp++;
 437:Generated_Source\PSoC4/CapSense_Structure.c ****             }
 438:Generated_Source\PSoC4/CapSense_Structure.c **** 
 439:Generated_Source\PSoC4/CapSense_Structure.c ****             ptrFlashWdgt++; /* Move to next widget */
 440:Generated_Source\PSoC4/CapSense_Structure.c ****         }
 441:Generated_Source\PSoC4/CapSense_Structure.c ****     #endif /*(0u != CapSense_CSX_EN) || (0 != CapSense_CSD_IDAC_COMP_EN)*/
 442:Generated_Source\PSoC4/CapSense_Structure.c **** 
 443:Generated_Source\PSoC4/CapSense_Structure.c ****     #if ((CapSense_ENABLE == CapSense_CSX_EN) && \
 444:Generated_Source\PSoC4/CapSense_Structure.c ****          (CapSense_ENABLE == CapSense_CSX_SKIP_OVSMPL_SPECIFIC_NODES))
 445:Generated_Source\PSoC4/CapSense_Structure.c ****         /* Initialize Sub-Conversion Number for each node of each CSX widget */
 446:Generated_Source\PSoC4/CapSense_Structure.c ****         ptrFlashWdgt = CapSense_dsFlash.wdgtArray;
 447:Generated_Source\PSoC4/CapSense_Structure.c ****         for (wdgtId = CapSense_TOTAL_WIDGETS; wdgtId-- > 0u;)
 448:Generated_Source\PSoC4/CapSense_Structure.c ****         {
 449:Generated_Source\PSoC4/CapSense_Structure.c ****             /* Check for widget sense method */
 450:Generated_Source\PSoC4/CapSense_Structure.c ****             if (CapSense_SENSE_METHOD_CSX_E == CapSense_GET_SENSE_METHOD(ptrFlashWdgt))
 451:Generated_Source\PSoC4/CapSense_Structure.c ****             {
 452:Generated_Source\PSoC4/CapSense_Structure.c ****                 /* Take the sub-convesion number of a CSX widget and initialize each node of this w
 453:Generated_Source\PSoC4/CapSense_Structure.c ****                 subConvNumber = ((CapSense_RAM_WD_BASE_STRUCT *)(ptrFlashWdgt->ptr2WdgtRam))->resol
 454:Generated_Source\PSoC4/CapSense_Structure.c ****                 ptrSnsTmp = ptrFlashWdgt->ptr2SnsRam;
 455:Generated_Source\PSoC4/CapSense_Structure.c ****                 for (snsId = CapSense_GET_SNS_CNT_BY_PTR(ptrFlashWdgt); snsId-- > 0u;)
 456:Generated_Source\PSoC4/CapSense_Structure.c ****                 {
 457:Generated_Source\PSoC4/CapSense_Structure.c ****                     ptrSnsTmp->subConvNum = subConvNumber;
 458:Generated_Source\PSoC4/CapSense_Structure.c ****                     ptrSnsTmp++;
 459:Generated_Source\PSoC4/CapSense_Structure.c ****                 }
 460:Generated_Source\PSoC4/CapSense_Structure.c ****             }
 461:Generated_Source\PSoC4/CapSense_Structure.c ****             /* Move to the next widget */
 462:Generated_Source\PSoC4/CapSense_Structure.c ****             ptrFlashWdgt++;
 463:Generated_Source\PSoC4/CapSense_Structure.c ****         }
 464:Generated_Source\PSoC4/CapSense_Structure.c ****     #endif /* ((CapSense_ENABLE == CapSense_CSX_EN) && \
 465:Generated_Source\PSoC4/CapSense_Structure.c ****                (CapSense_ENABLE == CapSense_CSX_SKIP_OVSMPL_SPECIFIC_NODES)) */
 466:Generated_Source\PSoC4/CapSense_Structure.c **** 
 467:Generated_Source\PSoC4/CapSense_Structure.c ****     #if (0u != CapSense_ADC_EN)
 468:Generated_Source\PSoC4/CapSense_Structure.c ****         CapSense_AdcDsInitialize();
 469:Generated_Source\PSoC4/CapSense_Structure.c ****     #endif /* (0u != CapSense_ADC_EN) */
 470:Generated_Source\PSoC4/CapSense_Structure.c **** }
 471:Generated_Source\PSoC4/CapSense_Structure.c **** 
 472:Generated_Source\PSoC4/CapSense_Structure.c **** 
 473:Generated_Source\PSoC4/CapSense_Structure.c **** #if (0u != CapSense_ADC_EN)
 474:Generated_Source\PSoC4/CapSense_Structure.c ****     /*******************************************************************************
 475:Generated_Source\PSoC4/CapSense_Structure.c ****     * Function Name: CapSense_AdcDsInitialize
 476:Generated_Source\PSoC4/CapSense_Structure.c ****     ****************************************************************************//**
 477:Generated_Source\PSoC4/CapSense_Structure.c ****     *
 478:Generated_Source\PSoC4/CapSense_Structure.c ****     * \brief
 479:Generated_Source\PSoC4/CapSense_Structure.c ****     *   Configures the initial Adc datastructure members.
 480:Generated_Source\PSoC4/CapSense_Structure.c ****     *
 481:Generated_Source\PSoC4/CapSense_Structure.c ****     *******************************************************************************/
 482:Generated_Source\PSoC4/CapSense_Structure.c ****     void CapSense_AdcDsInitialize(void)
 483:Generated_Source\PSoC4/CapSense_Structure.c ****     {
 484:Generated_Source\PSoC4/CapSense_Structure.c ****         CapSense_dsRam.adcResolution = CapSense_ADC_RESOLUTION;
 485:Generated_Source\PSoC4/CapSense_Structure.c ****         CapSense_dsRam.adcIdac = (uint8)(CapSense_ADC_IDAC_DEFAULT);
 486:Generated_Source\PSoC4/CapSense_Structure.c ****         CapSense_dsRam.adcActiveCh = CapSense_AdcNO_CHANNEL;
 487:Generated_Source\PSoC4/CapSense_Structure.c ****     }
ARM GAS  C:\Users\Jupiter\AppData\Local\Temp\ccFOAWw4.s 			page 10


 488:Generated_Source\PSoC4/CapSense_Structure.c **** #endif /* (0u != CapSense_ADC_EN) */
 489:Generated_Source\PSoC4/CapSense_Structure.c **** 
 490:Generated_Source\PSoC4/CapSense_Structure.c **** 
 491:Generated_Source\PSoC4/CapSense_Structure.c **** /*******************************************************************************
 492:Generated_Source\PSoC4/CapSense_Structure.c **** * Function Name: DsParseParamId
 493:Generated_Source\PSoC4/CapSense_Structure.c **** ****************************************************************************//**
 494:Generated_Source\PSoC4/CapSense_Structure.c **** *
 495:Generated_Source\PSoC4/CapSense_Structure.c **** * \brief
 496:Generated_Source\PSoC4/CapSense_Structure.c **** *   This function parses the parameter ID and checks its correctness.
 497:Generated_Source\PSoC4/CapSense_Structure.c **** *
 498:Generated_Source\PSoC4/CapSense_Structure.c **** * \details
 499:Generated_Source\PSoC4/CapSense_Structure.c **** *   This function checks the parameter CRC if the self-test is enabled,
 500:Generated_Source\PSoC4/CapSense_Structure.c **** *   validates the offset value and parameter type.
 501:Generated_Source\PSoC4/CapSense_Structure.c **** *
 502:Generated_Source\PSoC4/CapSense_Structure.c **** * \param paramId The parameter to parse.
 503:Generated_Source\PSoC4/CapSense_Structure.c **** * \param pData   The pointer to the structure that will hold parsed data.
 504:Generated_Source\PSoC4/CapSense_Structure.c **** *
 505:Generated_Source\PSoC4/CapSense_Structure.c **** * \return CYRET_SUCCESS     If the parameter is valid
 506:Generated_Source\PSoC4/CapSense_Structure.c **** *         CYRET_BAD_PARAM   If the parameter is invalid
 507:Generated_Source\PSoC4/CapSense_Structure.c **** *
 508:Generated_Source\PSoC4/CapSense_Structure.c **** *******************************************************************************/
 509:Generated_Source\PSoC4/CapSense_Structure.c **** static cystatus DsParseParamId(uint32 paramId, PARAM_ID_STRUCT *pData)
 510:Generated_Source\PSoC4/CapSense_Structure.c **** {
  27              		.loc 1 510 0
  28              		.cfi_startproc
  29              		@ args = 0, pretend = 0, frame = 0
  30              		@ frame_needed = 0, uses_anonymous_args = 0
  31              	.LVL0:
  32 0000 70B5     		push	{r4, r5, r6, lr}
  33              		.cfi_def_cfa_offset 16
  34              		.cfi_offset 4, -16
  35              		.cfi_offset 5, -12
  36              		.cfi_offset 6, -8
  37              		.cfi_offset 14, -4
  38              	.LVL1:
 511:Generated_Source\PSoC4/CapSense_Structure.c ****     cystatus result = CYRET_SUCCESS;
 512:Generated_Source\PSoC4/CapSense_Structure.c **** 
 513:Generated_Source\PSoC4/CapSense_Structure.c ****     #if (0u != CapSense_SELF_TEST_EN)
 514:Generated_Source\PSoC4/CapSense_Structure.c ****         const uint8 crcTable[] =
 515:Generated_Source\PSoC4/CapSense_Structure.c ****         {
 516:Generated_Source\PSoC4/CapSense_Structure.c ****             0x00u, 0x09u, 0x0Bu, 0x02u, 0x0Fu, 0x06u, 0x04u, 0x0Du,
 517:Generated_Source\PSoC4/CapSense_Structure.c ****             0x07u, 0x0Eu, 0x0Cu, 0x05u, 0x08u, 0x01u, 0x03u, 0x0Au
 518:Generated_Source\PSoC4/CapSense_Structure.c ****         };
 519:Generated_Source\PSoC4/CapSense_Structure.c **** 
 520:Generated_Source\PSoC4/CapSense_Structure.c ****         uint32 i;
 521:Generated_Source\PSoC4/CapSense_Structure.c ****         uint32 actualCrc = 0u;
 522:Generated_Source\PSoC4/CapSense_Structure.c ****         uint32 crcIndex;
 523:Generated_Source\PSoC4/CapSense_Structure.c ****     #endif /* #if (0u != CapSense_SELF_TEST_EN) */
 524:Generated_Source\PSoC4/CapSense_Structure.c **** 
 525:Generated_Source\PSoC4/CapSense_Structure.c ****     /* Extract parameter data */
 526:Generated_Source\PSoC4/CapSense_Structure.c ****     pData->offset     = LO16(paramId);
  39              		.loc 1 526 0
  40 0002 85B2     		uxth	r5, r0
  41 0004 0D80     		strh	r5, [r1]
 527:Generated_Source\PSoC4/CapSense_Structure.c ****     pData->affectsCrc = LO8((paramId & PARAM_UBIT_MASK)  >> PARAM_UBIT_OFFSET);
  42              		.loc 1 527 0
  43 0006 C30D     		lsrs	r3, r0, #23
ARM GAS  C:\Users\Jupiter\AppData\Local\Temp\ccFOAWw4.s 			page 11


  44 0008 0124     		movs	r4, #1
  45 000a 2340     		ands	r3, r4
  46 000c CB70     		strb	r3, [r1, #3]
 528:Generated_Source\PSoC4/CapSense_Structure.c ****     pData->widgetId   = LO8((paramId & PARAM_WDID_MASK)  >> PARAM_WDID_OFFSET);
  47              		.loc 1 528 0
  48 000e 030C     		lsrs	r3, r0, #16
  49 0010 7F22     		movs	r2, #127
  50 0012 1340     		ands	r3, r2
  51 0014 8B70     		strb	r3, [r1, #2]
 529:Generated_Source\PSoC4/CapSense_Structure.c ****     pData->type       = LO8((paramId & PARAM_TYPE_MASK)  >> PARAM_TYPE_OFFSET);
  52              		.loc 1 529 0
  53 0016 860F     		lsrs	r6, r0, #30
  54 0018 CE71     		strb	r6, [r1, #7]
 530:Generated_Source\PSoC4/CapSense_Structure.c ****     pData->flash      = LO8((paramId & PARAM_FBIT_MASK)  >> PARAM_FBIT_OFFSET);
  55              		.loc 1 530 0
  56 001a 030F     		lsrs	r3, r0, #28
  57 001c 2340     		ands	r3, r4
  58 001e 4B71     		strb	r3, [r1, #5]
 531:Generated_Source\PSoC4/CapSense_Structure.c ****     pData->rw         = LO8((paramId & PARAM_RWBIT_MASK) >> PARAM_RWBIT_OFFSET);
  59              		.loc 1 531 0
  60 0020 420F     		lsrs	r2, r0, #29
  61 0022 2240     		ands	r2, r4
  62 0024 8A71     		strb	r2, [r1, #6]
 532:Generated_Source\PSoC4/CapSense_Structure.c ****     pData->crc        = LO8((paramId & PARAM_CRC_MASK)   >> PARAM_CRC_OFFSET);
  63              		.loc 1 532 0
  64 0026 000E     		lsrs	r0, r0, #24
  65              	.LVL2:
  66 0028 0E34     		adds	r4, r4, #14
  67 002a 2040     		ands	r0, r4
  68 002c 0871     		strb	r0, [r1, #4]
 533:Generated_Source\PSoC4/CapSense_Structure.c **** 
 534:Generated_Source\PSoC4/CapSense_Structure.c ****     /* Check parameter CRC if self-test is enabled */
 535:Generated_Source\PSoC4/CapSense_Structure.c ****     #if (0u != CapSense_SELF_TEST_EN)
 536:Generated_Source\PSoC4/CapSense_Structure.c **** 
 537:Generated_Source\PSoC4/CapSense_Structure.c ****         /* Calculate CRC for bits 0..24.
 538:Generated_Source\PSoC4/CapSense_Structure.c ****          * The CRC is calculated using nibbles (4-bits).
 539:Generated_Source\PSoC4/CapSense_Structure.c ****          * So for 0..24 bits there are in total 6 nibbles. */
 540:Generated_Source\PSoC4/CapSense_Structure.c ****         for (i = 6u; i > 0u; i--)
 541:Generated_Source\PSoC4/CapSense_Structure.c ****         {
 542:Generated_Source\PSoC4/CapSense_Structure.c ****             crcIndex = actualCrc ^ (paramId & 0x0Fu);
 543:Generated_Source\PSoC4/CapSense_Structure.c ****             actualCrc = crcTable[crcIndex];
 544:Generated_Source\PSoC4/CapSense_Structure.c ****             paramId >>= 4u;
 545:Generated_Source\PSoC4/CapSense_Structure.c ****         }
 546:Generated_Source\PSoC4/CapSense_Structure.c **** 
 547:Generated_Source\PSoC4/CapSense_Structure.c ****         /* Add bits 28..32 */
 548:Generated_Source\PSoC4/CapSense_Structure.c ****         crcIndex = actualCrc ^ ((paramId >> 4u) & 0x0Fu);
 549:Generated_Source\PSoC4/CapSense_Structure.c ****         actualCrc = crcTable[crcIndex];
 550:Generated_Source\PSoC4/CapSense_Structure.c **** 
 551:Generated_Source\PSoC4/CapSense_Structure.c ****         /* Add bits 24..28 (CRC) */
 552:Generated_Source\PSoC4/CapSense_Structure.c ****         crcIndex = actualCrc ^ (paramId & 0x0Fu);
 553:Generated_Source\PSoC4/CapSense_Structure.c ****         actualCrc = crcTable[crcIndex];
 554:Generated_Source\PSoC4/CapSense_Structure.c **** 
 555:Generated_Source\PSoC4/CapSense_Structure.c ****         if (0u != actualCrc)
 556:Generated_Source\PSoC4/CapSense_Structure.c ****         {
 557:Generated_Source\PSoC4/CapSense_Structure.c ****             /* CRC mismatch */
 558:Generated_Source\PSoC4/CapSense_Structure.c ****             result = CYRET_BAD_PARAM;
 559:Generated_Source\PSoC4/CapSense_Structure.c ****         }
ARM GAS  C:\Users\Jupiter\AppData\Local\Temp\ccFOAWw4.s 			page 12


 560:Generated_Source\PSoC4/CapSense_Structure.c **** 
 561:Generated_Source\PSoC4/CapSense_Structure.c ****         if ((CYRET_SUCCESS == result) &&
 562:Generated_Source\PSoC4/CapSense_Structure.c ****             (0u != pData->affectsCrc) && (pData->widgetId >= CapSense_TOTAL_WIDGETS ))
 563:Generated_Source\PSoC4/CapSense_Structure.c ****         {
 564:Generated_Source\PSoC4/CapSense_Structure.c ****             /* Wrong widgetId for protected parameter */
 565:Generated_Source\PSoC4/CapSense_Structure.c ****             result = CYRET_BAD_PARAM;
 566:Generated_Source\PSoC4/CapSense_Structure.c ****         }
 567:Generated_Source\PSoC4/CapSense_Structure.c **** 
 568:Generated_Source\PSoC4/CapSense_Structure.c ****         /* Check offset value range */
 569:Generated_Source\PSoC4/CapSense_Structure.c ****         if (CYRET_SUCCESS == result)
 570:Generated_Source\PSoC4/CapSense_Structure.c ****         {
 571:Generated_Source\PSoC4/CapSense_Structure.c ****             if (0u == pData->flash)
 572:Generated_Source\PSoC4/CapSense_Structure.c ****             {
 573:Generated_Source\PSoC4/CapSense_Structure.c ****                 /* Check offset for RAM Data Structure range */
 574:Generated_Source\PSoC4/CapSense_Structure.c ****                 if (pData->offset >= sizeof(CapSense_dsRam))
 575:Generated_Source\PSoC4/CapSense_Structure.c ****                 {
 576:Generated_Source\PSoC4/CapSense_Structure.c ****                     result = CYRET_BAD_PARAM;
 577:Generated_Source\PSoC4/CapSense_Structure.c ****                 }
 578:Generated_Source\PSoC4/CapSense_Structure.c ****             }
 579:Generated_Source\PSoC4/CapSense_Structure.c ****             else
 580:Generated_Source\PSoC4/CapSense_Structure.c ****             {
 581:Generated_Source\PSoC4/CapSense_Structure.c ****                 /* Check offset for Flash Data Structure range */
 582:Generated_Source\PSoC4/CapSense_Structure.c ****                 if (pData->offset >= sizeof(CapSense_dsFlash))
 583:Generated_Source\PSoC4/CapSense_Structure.c ****                 {
 584:Generated_Source\PSoC4/CapSense_Structure.c ****                     result = CYRET_BAD_PARAM;
 585:Generated_Source\PSoC4/CapSense_Structure.c ****                 }
 586:Generated_Source\PSoC4/CapSense_Structure.c **** 
 587:Generated_Source\PSoC4/CapSense_Structure.c ****                 /* Check if it is marked as Read Only */
 588:Generated_Source\PSoC4/CapSense_Structure.c ****                 if (0u != pData->rw)
 589:Generated_Source\PSoC4/CapSense_Structure.c ****                 {
 590:Generated_Source\PSoC4/CapSense_Structure.c ****                     result = CYRET_BAD_PARAM;
 591:Generated_Source\PSoC4/CapSense_Structure.c ****                 }
 592:Generated_Source\PSoC4/CapSense_Structure.c ****             }
 593:Generated_Source\PSoC4/CapSense_Structure.c ****         }
 594:Generated_Source\PSoC4/CapSense_Structure.c ****     #else /* #if (0u != CapSense_SELF_TEST_EN) */
 595:Generated_Source\PSoC4/CapSense_Structure.c ****         /* Check offset value range */
 596:Generated_Source\PSoC4/CapSense_Structure.c ****         if (0u == pData->flash)
  69              		.loc 1 596 0
  70 002e 002B     		cmp	r3, #0
  71 0030 03D1     		bne	.L2
 597:Generated_Source\PSoC4/CapSense_Structure.c ****         {
 598:Generated_Source\PSoC4/CapSense_Structure.c ****             /* Check offset for RAM Data Structure range */
 599:Generated_Source\PSoC4/CapSense_Structure.c ****             if (pData->offset >= sizeof(CapSense_dsRam))
  72              		.loc 1 599 0
  73 0032 632D     		cmp	r5, #99
  74 0034 09D8     		bhi	.L9
 511:Generated_Source\PSoC4/CapSense_Structure.c **** 
  75              		.loc 1 511 0
  76 0036 0020     		movs	r0, #0
  77 0038 0AE0     		b	.L3
  78              	.L2:
 600:Generated_Source\PSoC4/CapSense_Structure.c ****             {
 601:Generated_Source\PSoC4/CapSense_Structure.c ****                 result = CYRET_BAD_PARAM;
 602:Generated_Source\PSoC4/CapSense_Structure.c ****             }
 603:Generated_Source\PSoC4/CapSense_Structure.c ****         }
 604:Generated_Source\PSoC4/CapSense_Structure.c ****         else
 605:Generated_Source\PSoC4/CapSense_Structure.c ****         {
ARM GAS  C:\Users\Jupiter\AppData\Local\Temp\ccFOAWw4.s 			page 13


 606:Generated_Source\PSoC4/CapSense_Structure.c ****             /* Check offset for Flash Data Structure range */
 607:Generated_Source\PSoC4/CapSense_Structure.c ****             if (pData->offset >= sizeof(CapSense_dsFlash))
  79              		.loc 1 607 0
  80 003a 3F2D     		cmp	r5, #63
  81 003c 01D8     		bhi	.L10
 511:Generated_Source\PSoC4/CapSense_Structure.c **** 
  82              		.loc 1 511 0
  83 003e 0020     		movs	r0, #0
  84 0040 00E0     		b	.L4
  85              	.L10:
 608:Generated_Source\PSoC4/CapSense_Structure.c ****             {
 609:Generated_Source\PSoC4/CapSense_Structure.c ****                 result = CYRET_BAD_PARAM;
  86              		.loc 1 609 0
  87 0042 0120     		movs	r0, #1
  88              	.L4:
  89              	.LVL3:
 610:Generated_Source\PSoC4/CapSense_Structure.c ****             }
 611:Generated_Source\PSoC4/CapSense_Structure.c **** 
 612:Generated_Source\PSoC4/CapSense_Structure.c ****             /* Check if it is marked as Read Only */
 613:Generated_Source\PSoC4/CapSense_Structure.c ****             if (0u != pData->rw)
  90              		.loc 1 613 0
  91 0044 002A     		cmp	r2, #0
  92 0046 02D1     		bne	.L11
  93 0048 02E0     		b	.L3
  94              	.LVL4:
  95              	.L9:
 601:Generated_Source\PSoC4/CapSense_Structure.c ****             }
  96              		.loc 1 601 0
  97 004a 0120     		movs	r0, #1
  98 004c 00E0     		b	.L3
  99              	.LVL5:
 100              	.L11:
 614:Generated_Source\PSoC4/CapSense_Structure.c ****             {
 615:Generated_Source\PSoC4/CapSense_Structure.c ****                 result = CYRET_BAD_PARAM;
 101              		.loc 1 615 0
 102 004e 0120     		movs	r0, #1
 103              	.LVL6:
 104              	.L3:
 616:Generated_Source\PSoC4/CapSense_Structure.c ****             }
 617:Generated_Source\PSoC4/CapSense_Structure.c ****         }
 618:Generated_Source\PSoC4/CapSense_Structure.c ****     #endif /* #if (0u != CapSense_SELF_TEST_EN) */
 619:Generated_Source\PSoC4/CapSense_Structure.c **** 
 620:Generated_Source\PSoC4/CapSense_Structure.c ****     if (CYRET_SUCCESS == result)
 105              		.loc 1 620 0
 106 0050 0028     		cmp	r0, #0
 107 0052 11D1     		bne	.L5
 621:Generated_Source\PSoC4/CapSense_Structure.c ****     {
 622:Generated_Source\PSoC4/CapSense_Structure.c ****         /* Check parameter type, offset alignment */
 623:Generated_Source\PSoC4/CapSense_Structure.c ****         switch (pData->type)
 108              		.loc 1 623 0
 109 0054 022E     		cmp	r6, #2
 110 0056 04D0     		beq	.L6
 111 0058 032E     		cmp	r6, #3
 112 005a 05D0     		beq	.L7
 113 005c 012E     		cmp	r6, #1
 114 005e 06D1     		bne	.L15
 115 0060 0AE0     		b	.L5
ARM GAS  C:\Users\Jupiter\AppData\Local\Temp\ccFOAWw4.s 			page 14


 116              	.L6:
 624:Generated_Source\PSoC4/CapSense_Structure.c ****         {
 625:Generated_Source\PSoC4/CapSense_Structure.c ****         case DS_PARAM_TYPE_UINT16:
 626:Generated_Source\PSoC4/CapSense_Structure.c ****             if (0u != (pData->offset & UINT16_ALIGN_MASK))
 117              		.loc 1 626 0
 118 0062 EB07     		lsls	r3, r5, #31
 119 0064 05D4     		bmi	.L13
 120 0066 07E0     		b	.L5
 121              	.L7:
 627:Generated_Source\PSoC4/CapSense_Structure.c ****             {
 628:Generated_Source\PSoC4/CapSense_Structure.c ****                 result = CYRET_BAD_PARAM;
 629:Generated_Source\PSoC4/CapSense_Structure.c ****             }
 630:Generated_Source\PSoC4/CapSense_Structure.c ****             break;
 631:Generated_Source\PSoC4/CapSense_Structure.c **** 
 632:Generated_Source\PSoC4/CapSense_Structure.c ****         case DS_PARAM_TYPE_UINT32:
 633:Generated_Source\PSoC4/CapSense_Structure.c ****             if (0u != (pData->offset & UINT32_ALIGN_MASK))
 122              		.loc 1 633 0
 123 0068 AB07     		lsls	r3, r5, #30
 124 006a 04D1     		bne	.L14
 125 006c 04E0     		b	.L5
 126              	.L15:
 634:Generated_Source\PSoC4/CapSense_Structure.c ****             {
 635:Generated_Source\PSoC4/CapSense_Structure.c ****                 result = CYRET_BAD_PARAM;
 636:Generated_Source\PSoC4/CapSense_Structure.c ****             }
 637:Generated_Source\PSoC4/CapSense_Structure.c ****             break;
 638:Generated_Source\PSoC4/CapSense_Structure.c **** 
 639:Generated_Source\PSoC4/CapSense_Structure.c ****         case DS_PARAM_TYPE_UINT8:
 640:Generated_Source\PSoC4/CapSense_Structure.c ****             break;
 641:Generated_Source\PSoC4/CapSense_Structure.c **** 
 642:Generated_Source\PSoC4/CapSense_Structure.c ****         default:
 643:Generated_Source\PSoC4/CapSense_Structure.c ****             result = CYRET_BAD_PARAM;
 127              		.loc 1 643 0
 128 006e 0120     		movs	r0, #1
 129              	.LVL7:
 130 0070 02E0     		b	.L5
 131              	.LVL8:
 132              	.L13:
 628:Generated_Source\PSoC4/CapSense_Structure.c ****             }
 133              		.loc 1 628 0
 134 0072 0120     		movs	r0, #1
 135              	.LVL9:
 136 0074 00E0     		b	.L5
 137              	.LVL10:
 138              	.L14:
 635:Generated_Source\PSoC4/CapSense_Structure.c ****             }
 139              		.loc 1 635 0
 140 0076 0120     		movs	r0, #1
 141              	.LVL11:
 142              	.L5:
 644:Generated_Source\PSoC4/CapSense_Structure.c ****             break;
 645:Generated_Source\PSoC4/CapSense_Structure.c ****         }
 646:Generated_Source\PSoC4/CapSense_Structure.c ****     }
 647:Generated_Source\PSoC4/CapSense_Structure.c **** 
 648:Generated_Source\PSoC4/CapSense_Structure.c ****     return result;
 649:Generated_Source\PSoC4/CapSense_Structure.c **** }
 143              		.loc 1 649 0
 144              		@ sp needed
ARM GAS  C:\Users\Jupiter\AppData\Local\Temp\ccFOAWw4.s 			page 15


 145 0078 70BD     		pop	{r4, r5, r6, pc}
 146              		.cfi_endproc
 147              	.LFE2:
 148              		.size	DsParseParamId, .-DsParseParamId
 149 007a C046     		.section	.text.CapSense_DsInitialize,"ax",%progbits
 150              		.align	2
 151              		.global	CapSense_DsInitialize
 152              		.code	16
 153              		.thumb_func
 154              		.type	CapSense_DsInitialize, %function
 155              	CapSense_DsInitialize:
 156              	.LFB1:
 293:Generated_Source\PSoC4/CapSense_Structure.c ****     #if ((CapSense_ENABLE == CapSense_CSX_EN) || \
 157              		.loc 1 293 0
 158              		.cfi_startproc
 159              		@ args = 0, pretend = 0, frame = 0
 160              		@ frame_needed = 0, uses_anonymous_args = 0
 161 0000 70B5     		push	{r4, r5, r6, lr}
 162              		.cfi_def_cfa_offset 16
 163              		.cfi_offset 4, -16
 164              		.cfi_offset 5, -12
 165              		.cfi_offset 6, -8
 166              		.cfi_offset 14, -4
 167              	.LVL12:
 314:Generated_Source\PSoC4/CapSense_Structure.c **** 
 168              		.loc 1 314 0
 169 0002 184D     		ldr	r5, .L21
 170 0004 6422     		movs	r2, #100
 171 0006 0021     		movs	r1, #0
 172 0008 2800     		movs	r0, r5
 173 000a FFF7FEFF 		bl	memset
 174              	.LVL13:
 317:Generated_Source\PSoC4/CapSense_Structure.c ****     CapSense_dsRam.deviceId = CapSense_DEVICE_ID;
 175              		.loc 1 317 0
 176 000e 164B     		ldr	r3, .L21+4
 177 0010 2B80     		strh	r3, [r5]
 318:Generated_Source\PSoC4/CapSense_Structure.c ****     CapSense_dsRam.hwClock = CapSense_HW_CLOCK;
 178              		.loc 1 318 0
 179 0012 9023     		movs	r3, #144
 180 0014 1B01     		lsls	r3, r3, #4
 181 0016 6B80     		strh	r3, [r5, #2]
 319:Generated_Source\PSoC4/CapSense_Structure.c **** 
 182              		.loc 1 319 0
 183 0018 144B     		ldr	r3, .L21+8
 184 001a AB80     		strh	r3, [r5, #4]
 322:Generated_Source\PSoC4/CapSense_Structure.c **** 
 185              		.loc 1 322 0
 186 001c 0823     		movs	r3, #8
 187 001e 6B83     		strh	r3, [r5, #26]
 324:Generated_Source\PSoC4/CapSense_Structure.c ****     #if (0u != CapSense_TOTAL_CSD_WIDGETS)
 188              		.loc 1 324 0
 189 0020 0322     		movs	r2, #3
 190 0022 5933     		adds	r3, r3, #89
 191 0024 EA54     		strb	r2, [r5, r3]
 326:Generated_Source\PSoC4/CapSense_Structure.c ****         CapSense_dsRam.scanCsdISC = CapSense_CSD_INACTIVE_SNS_CONNECTION;
 192              		.loc 1 326 0
 193 0026 603B     		subs	r3, r3, #96
ARM GAS  C:\Users\Jupiter\AppData\Local\Temp\ccFOAWw4.s 			page 16


 194 0028 2B77     		strb	r3, [r5, #28]
 400:Generated_Source\PSoC4/CapSense_Structure.c **** 
 195              		.loc 1 400 0
 196 002a 114C     		ldr	r4, .L21+12
 197 002c 2800     		movs	r0, r5
 198 002e 1E30     		adds	r0, r0, #30
 199 0030 2100     		movs	r1, r4
 200 0032 4431     		adds	r1, r1, #68
 201 0034 2532     		adds	r2, r2, #37
 202 0036 FFF7FEFF 		bl	memcpy
 203              	.LVL14:
 310:Generated_Source\PSoC4/CapSense_Structure.c ****     #endif
 204              		.loc 1 310 0
 205 003a 2100     		movs	r1, r4
 417:Generated_Source\PSoC4/CapSense_Structure.c **** 
 206              		.loc 1 417 0
 207 003c 0434     		adds	r4, r4, #4
 419:Generated_Source\PSoC4/CapSense_Structure.c ****         {
 208              		.loc 1 419 0
 209 003e 0223     		movs	r3, #2
 210 0040 0CE0     		b	.L17
 211              	.LVL15:
 212              	.L20:
 421:Generated_Source\PSoC4/CapSense_Structure.c **** 
 213              		.loc 1 421 0
 214 0042 A268     		ldr	r2, [r4, #8]
 215              	.LVL16:
 423:Generated_Source\PSoC4/CapSense_Structure.c ****             {
 216              		.loc 1 423 0
 217 0044 238B     		ldrh	r3, [r4, #24]
 218              	.LVL17:
 219 0046 04E0     		b	.L18
 220              	.LVL18:
 221              	.L19:
 425:Generated_Source\PSoC4/CapSense_Structure.c ****                 ptrIdacInit++;
 222              		.loc 1 425 0
 223 0048 0B78     		ldrb	r3, [r1]
 224 004a 5372     		strb	r3, [r2, #9]
 426:Generated_Source\PSoC4/CapSense_Structure.c **** 
 225              		.loc 1 426 0
 226 004c 0131     		adds	r1, r1, #1
 227              	.LVL19:
 436:Generated_Source\PSoC4/CapSense_Structure.c ****             }
 228              		.loc 1 436 0
 229 004e 0A32     		adds	r2, r2, #10
 230              	.LVL20:
 423:Generated_Source\PSoC4/CapSense_Structure.c ****             {
 231              		.loc 1 423 0
 232 0050 0300     		movs	r3, r0
 233              	.LVL21:
 234              	.L18:
 423:Generated_Source\PSoC4/CapSense_Structure.c ****             {
 235              		.loc 1 423 0 is_stmt 0 discriminator 1
 236 0052 581E     		subs	r0, r3, #1
 237              	.LVL22:
 238 0054 002B     		cmp	r3, #0
 239 0056 F7D1     		bne	.L19
ARM GAS  C:\Users\Jupiter\AppData\Local\Temp\ccFOAWw4.s 			page 17


 439:Generated_Source\PSoC4/CapSense_Structure.c ****         }
 240              		.loc 1 439 0 is_stmt 1
 241 0058 2034     		adds	r4, r4, #32
 242              	.LVL23:
 419:Generated_Source\PSoC4/CapSense_Structure.c ****         {
 243              		.loc 1 419 0
 244 005a 2B00     		movs	r3, r5
 245              	.LVL24:
 246              	.L17:
 419:Generated_Source\PSoC4/CapSense_Structure.c ****         {
 247              		.loc 1 419 0 is_stmt 0 discriminator 1
 248 005c 5D1E     		subs	r5, r3, #1
 249              	.LVL25:
 250 005e 002B     		cmp	r3, #0
 251 0060 EFD1     		bne	.L20
 470:Generated_Source\PSoC4/CapSense_Structure.c **** 
 252              		.loc 1 470 0 is_stmt 1
 253              		@ sp needed
 254              	.LVL26:
 255              	.LVL27:
 256 0062 70BD     		pop	{r4, r5, r6, pc}
 257              	.L22:
 258              		.align	2
 259              	.L21:
 260 0064 00000000 		.word	CapSense_dsRam
 261 0068 FCA4FFFF 		.word	-23300
 262 006c B80B0000 		.word	3000
 263 0070 00000000 		.word	.LANCHOR0
 264              		.cfi_endproc
 265              	.LFE1:
 266              		.size	CapSense_DsInitialize, .-CapSense_DsInitialize
 267              		.section	.text.CapSense_GetParam,"ax",%progbits
 268              		.align	2
 269              		.global	CapSense_GetParam
 270              		.code	16
 271              		.thumb_func
 272              		.type	CapSense_GetParam, %function
 273              	CapSense_GetParam:
 274              	.LFB3:
 650:Generated_Source\PSoC4/CapSense_Structure.c **** 
 651:Generated_Source\PSoC4/CapSense_Structure.c **** /*******************************************************************************
 652:Generated_Source\PSoC4/CapSense_Structure.c **** * Function Name: CapSense_GetParam
 653:Generated_Source\PSoC4/CapSense_Structure.c **** ****************************************************************************//**
 654:Generated_Source\PSoC4/CapSense_Structure.c **** *
 655:Generated_Source\PSoC4/CapSense_Structure.c **** * \brief
 656:Generated_Source\PSoC4/CapSense_Structure.c **** *  Gets the specified parameter value from the \ref group_structures.
 657:Generated_Source\PSoC4/CapSense_Structure.c **** *
 658:Generated_Source\PSoC4/CapSense_Structure.c **** * \details
 659:Generated_Source\PSoC4/CapSense_Structure.c **** *  This function gets the value of the specified parameter by the paramId
 660:Generated_Source\PSoC4/CapSense_Structure.c **** *  argument. The paramId for each register is available in the
 661:Generated_Source\PSoC4/CapSense_Structure.c **** *  CapSense RegisterMap header file as
 662:Generated_Source\PSoC4/CapSense_Structure.c **** *  CapSense_<ParameterName>_PARAM_ID. The paramId is a special
 663:Generated_Source\PSoC4/CapSense_Structure.c **** *  enumerated value generated by the customizer. The format of paramId is as
 664:Generated_Source\PSoC4/CapSense_Structure.c **** *  follows:
 665:Generated_Source\PSoC4/CapSense_Structure.c **** *    1. [ byte 3 byte 2 byte 1 byte 0 ]
 666:Generated_Source\PSoC4/CapSense_Structure.c **** *    2. [ TTWFCCCC UIIIIIII MMMMMMMM LLLLLLLL ]
 667:Generated_Source\PSoC4/CapSense_Structure.c **** *    3. T - encodes the parameter type:
ARM GAS  C:\Users\Jupiter\AppData\Local\Temp\ccFOAWw4.s 			page 18


 668:Generated_Source\PSoC4/CapSense_Structure.c **** *      - 01b: uint8
 669:Generated_Source\PSoC4/CapSense_Structure.c **** *      - 10b: uint16
 670:Generated_Source\PSoC4/CapSense_Structure.c **** *      - 11b: uint32
 671:Generated_Source\PSoC4/CapSense_Structure.c **** *    4. W - indicates whether the parameter is writable:
 672:Generated_Source\PSoC4/CapSense_Structure.c **** *      - 0: ReadOnly
 673:Generated_Source\PSoC4/CapSense_Structure.c **** *      - 1: Read/Write
 674:Generated_Source\PSoC4/CapSense_Structure.c **** *    5. C - 4 bit CRC (X^3 + 1) of the whole paramId word, the C bits are
 675:Generated_Source\PSoC4/CapSense_Structure.c **** *       filled with 0s when the CRC is calculated.
 676:Generated_Source\PSoC4/CapSense_Structure.c **** *    6. U - indicates if the parameter affects the RAM Widget Object CRC.
 677:Generated_Source\PSoC4/CapSense_Structure.c **** *    7. I - specifies that the widgetId parameter belongs to
 678:Generated_Source\PSoC4/CapSense_Structure.c **** *    8. M,L - the parameter offset MSB and LSB accordingly in:
 679:Generated_Source\PSoC4/CapSense_Structure.c **** *      - Flash Data Structure if W bit is 0.
 680:Generated_Source\PSoC4/CapSense_Structure.c **** *      - RAM Data Structure if W bit is 1.
 681:Generated_Source\PSoC4/CapSense_Structure.c **** *
 682:Generated_Source\PSoC4/CapSense_Structure.c **** *  Refer to the \ref group_structures section for details of the data structure
 683:Generated_Source\PSoC4/CapSense_Structure.c **** *  organization and examples of its register access.
 684:Generated_Source\PSoC4/CapSense_Structure.c **** *
 685:Generated_Source\PSoC4/CapSense_Structure.c **** * \param paramId
 686:Generated_Source\PSoC4/CapSense_Structure.c **** *  Specifies the ID of parameter to get its value.
 687:Generated_Source\PSoC4/CapSense_Structure.c **** *  A macro for the parameter ID can be found in the CapSense RegisterMap header
 688:Generated_Source\PSoC4/CapSense_Structure.c **** *  file defined as CapSense_<ParameterName>_PARAM_ID.
 689:Generated_Source\PSoC4/CapSense_Structure.c **** *
 690:Generated_Source\PSoC4/CapSense_Structure.c **** * \param value
 691:Generated_Source\PSoC4/CapSense_Structure.c **** *  The pointer to a variable to be updated with the obtained value.
 692:Generated_Source\PSoC4/CapSense_Structure.c **** *
 693:Generated_Source\PSoC4/CapSense_Structure.c **** * \return
 694:Generated_Source\PSoC4/CapSense_Structure.c **** *  Returns the status of the operation:
 695:Generated_Source\PSoC4/CapSense_Structure.c **** *    - CYRET_SUCCESS - The operation is successfully completed.
 696:Generated_Source\PSoC4/CapSense_Structure.c **** *    - CYRET_BAD_PARAM - The input parameter is invalid.
 697:Generated_Source\PSoC4/CapSense_Structure.c **** *
 698:Generated_Source\PSoC4/CapSense_Structure.c **** *******************************************************************************/
 699:Generated_Source\PSoC4/CapSense_Structure.c **** cystatus CapSense_GetParam(uint32 paramId, uint32 *value)
 700:Generated_Source\PSoC4/CapSense_Structure.c **** {
 275              		.loc 1 700 0
 276              		.cfi_startproc
 277              		@ args = 0, pretend = 0, frame = 8
 278              		@ frame_needed = 0, uses_anonymous_args = 0
 279              	.LVL28:
 280 0000 30B5     		push	{r4, r5, lr}
 281              		.cfi_def_cfa_offset 12
 282              		.cfi_offset 4, -12
 283              		.cfi_offset 5, -8
 284              		.cfi_offset 14, -4
 285 0002 83B0     		sub	sp, sp, #12
 286              		.cfi_def_cfa_offset 24
 287 0004 0D00     		movs	r5, r1
 701:Generated_Source\PSoC4/CapSense_Structure.c ****     PARAM_ID_STRUCT pData;
 702:Generated_Source\PSoC4/CapSense_Structure.c ****     cystatus result;
 703:Generated_Source\PSoC4/CapSense_Structure.c **** 
 704:Generated_Source\PSoC4/CapSense_Structure.c ****     union
 705:Generated_Source\PSoC4/CapSense_Structure.c ****     {
 706:Generated_Source\PSoC4/CapSense_Structure.c ****         volatile void   const * ptr;
 707:Generated_Source\PSoC4/CapSense_Structure.c ****         volatile uint8  const * ptrUint8;
 708:Generated_Source\PSoC4/CapSense_Structure.c ****         volatile uint16 const * ptrUint16;
 709:Generated_Source\PSoC4/CapSense_Structure.c ****         volatile uint32 const * ptrUint32;
 710:Generated_Source\PSoC4/CapSense_Structure.c ****     } ptrData;
 711:Generated_Source\PSoC4/CapSense_Structure.c **** 
ARM GAS  C:\Users\Jupiter\AppData\Local\Temp\ccFOAWw4.s 			page 19


 712:Generated_Source\PSoC4/CapSense_Structure.c ****     result = DsParseParamId(paramId, &pData);
 288              		.loc 1 712 0
 289 0006 6946     		mov	r1, sp
 290              	.LVL29:
 291 0008 FFF7FEFF 		bl	DsParseParamId
 292              	.LVL30:
 293 000c 041E     		subs	r4, r0, #0
 294              	.LVL31:
 713:Generated_Source\PSoC4/CapSense_Structure.c **** 
 714:Generated_Source\PSoC4/CapSense_Structure.c ****     /* Parse and validate paramId */
 715:Generated_Source\PSoC4/CapSense_Structure.c ****     if (CYRET_SUCCESS == result)
 295              		.loc 1 715 0
 296 000e 1ED1     		bne	.L24
 716:Generated_Source\PSoC4/CapSense_Structure.c ****     {
 717:Generated_Source\PSoC4/CapSense_Structure.c ****         /* Get base address of parameter */
 718:Generated_Source\PSoC4/CapSense_Structure.c ****         if (0u == pData.flash)
 297              		.loc 1 718 0
 298 0010 6B46     		mov	r3, sp
 299 0012 5B79     		ldrb	r3, [r3, #5]
 300 0014 002B     		cmp	r3, #0
 301 0016 01D1     		bne	.L25
 719:Generated_Source\PSoC4/CapSense_Structure.c ****         {
 720:Generated_Source\PSoC4/CapSense_Structure.c ****             ptrData.ptr = &CapSense_dsRam;
 302              		.loc 1 720 0
 303 0018 0E4A     		ldr	r2, .L30
 304              	.LVL32:
 305 001a 01E0     		b	.L26
 306              	.L25:
 721:Generated_Source\PSoC4/CapSense_Structure.c ****         }
 722:Generated_Source\PSoC4/CapSense_Structure.c ****         else
 723:Generated_Source\PSoC4/CapSense_Structure.c ****         {
 724:Generated_Source\PSoC4/CapSense_Structure.c ****             ptrData.ptr = &CapSense_dsFlash;
 307              		.loc 1 724 0
 308 001c 0E4B     		ldr	r3, .L30+4
 309 001e 1A1D     		adds	r2, r3, #4
 310              	.L26:
 725:Generated_Source\PSoC4/CapSense_Structure.c ****         }
 726:Generated_Source\PSoC4/CapSense_Structure.c **** 
 727:Generated_Source\PSoC4/CapSense_Structure.c ****         /* Add offset to base address */
 728:Generated_Source\PSoC4/CapSense_Structure.c ****         ptrData.ptrUint8 += pData.offset;
 311              		.loc 1 728 0
 312 0020 6B46     		mov	r3, sp
 313 0022 1B88     		ldrh	r3, [r3]
 314              	.LVL33:
 315 0024 D318     		adds	r3, r2, r3
 729:Generated_Source\PSoC4/CapSense_Structure.c **** 
 730:Generated_Source\PSoC4/CapSense_Structure.c ****         /* Read data */
 731:Generated_Source\PSoC4/CapSense_Structure.c ****         if (DS_PARAM_TYPE_UINT8 == pData.type)
 316              		.loc 1 731 0
 317 0026 6A46     		mov	r2, sp
 318              	.LVL34:
 319 0028 D279     		ldrb	r2, [r2, #7]
 320 002a 012A     		cmp	r2, #1
 321 002c 02D1     		bne	.L27
 732:Generated_Source\PSoC4/CapSense_Structure.c ****         {
 733:Generated_Source\PSoC4/CapSense_Structure.c ****             *value = (uint32) (*ptrData.ptrUint8);
 322              		.loc 1 733 0
ARM GAS  C:\Users\Jupiter\AppData\Local\Temp\ccFOAWw4.s 			page 20


 323 002e 1B78     		ldrb	r3, [r3]
 324 0030 2B60     		str	r3, [r5]
 325 0032 0CE0     		b	.L24
 326              	.L27:
 734:Generated_Source\PSoC4/CapSense_Structure.c ****         }
 735:Generated_Source\PSoC4/CapSense_Structure.c ****         else if (DS_PARAM_TYPE_UINT16 == pData.type)
 327              		.loc 1 735 0
 328 0034 022A     		cmp	r2, #2
 329 0036 02D1     		bne	.L28
 736:Generated_Source\PSoC4/CapSense_Structure.c ****         {
 737:Generated_Source\PSoC4/CapSense_Structure.c ****             *value = (uint32) (*ptrData.ptrUint16);
 330              		.loc 1 737 0
 331 0038 1B88     		ldrh	r3, [r3]
 332 003a 2B60     		str	r3, [r5]
 333 003c 07E0     		b	.L24
 334              	.L28:
 738:Generated_Source\PSoC4/CapSense_Structure.c ****         }
 739:Generated_Source\PSoC4/CapSense_Structure.c ****         else if (DS_PARAM_TYPE_UINT32 == pData.type)
 335              		.loc 1 739 0
 336 003e 032A     		cmp	r2, #3
 337 0040 02D1     		bne	.L29
 740:Generated_Source\PSoC4/CapSense_Structure.c ****         {
 741:Generated_Source\PSoC4/CapSense_Structure.c ****             *value = *ptrData.ptrUint32;
 338              		.loc 1 741 0
 339 0042 1B68     		ldr	r3, [r3]
 340 0044 2B60     		str	r3, [r5]
 341 0046 02E0     		b	.L24
 342              	.L29:
 742:Generated_Source\PSoC4/CapSense_Structure.c ****         }
 743:Generated_Source\PSoC4/CapSense_Structure.c ****         else
 744:Generated_Source\PSoC4/CapSense_Structure.c ****         {
 745:Generated_Source\PSoC4/CapSense_Structure.c ****             /* Parameter comes here already validated. */
 746:Generated_Source\PSoC4/CapSense_Structure.c ****             CYASSERT(0u);
 343              		.loc 1 746 0 discriminator 1
 344 0048 0020     		movs	r0, #0
 345              	.LVL35:
 346 004a FFF7FEFF 		bl	CyHalt
 347              	.LVL36:
 348              	.L24:
 747:Generated_Source\PSoC4/CapSense_Structure.c ****         }
 748:Generated_Source\PSoC4/CapSense_Structure.c ****     }
 749:Generated_Source\PSoC4/CapSense_Structure.c **** 
 750:Generated_Source\PSoC4/CapSense_Structure.c ****     return result;
 751:Generated_Source\PSoC4/CapSense_Structure.c **** }
 349              		.loc 1 751 0
 350 004e 2000     		movs	r0, r4
 351 0050 03B0     		add	sp, sp, #12
 352              		@ sp needed
 353              	.LVL37:
 354              	.LVL38:
 355 0052 30BD     		pop	{r4, r5, pc}
 356              	.L31:
 357              		.align	2
 358              	.L30:
 359 0054 00000000 		.word	CapSense_dsRam
 360 0058 00000000 		.word	.LANCHOR0
 361              		.cfi_endproc
ARM GAS  C:\Users\Jupiter\AppData\Local\Temp\ccFOAWw4.s 			page 21


 362              	.LFE3:
 363              		.size	CapSense_GetParam, .-CapSense_GetParam
 364              		.section	.text.CapSense_SetParam,"ax",%progbits
 365              		.align	2
 366              		.global	CapSense_SetParam
 367              		.code	16
 368              		.thumb_func
 369              		.type	CapSense_SetParam, %function
 370              	CapSense_SetParam:
 371              	.LFB4:
 752:Generated_Source\PSoC4/CapSense_Structure.c **** 
 753:Generated_Source\PSoC4/CapSense_Structure.c **** 
 754:Generated_Source\PSoC4/CapSense_Structure.c **** /*******************************************************************************
 755:Generated_Source\PSoC4/CapSense_Structure.c **** * Function Name: CapSense_SetParam
 756:Generated_Source\PSoC4/CapSense_Structure.c **** ****************************************************************************//**
 757:Generated_Source\PSoC4/CapSense_Structure.c **** *
 758:Generated_Source\PSoC4/CapSense_Structure.c **** * \brief
 759:Generated_Source\PSoC4/CapSense_Structure.c **** *  Sets a new value for the specified parameter in the \ref group_structures.
 760:Generated_Source\PSoC4/CapSense_Structure.c **** *
 761:Generated_Source\PSoC4/CapSense_Structure.c **** * \details
 762:Generated_Source\PSoC4/CapSense_Structure.c **** *  This function sets the value of the specified parameter by the paramId
 763:Generated_Source\PSoC4/CapSense_Structure.c **** *  argument. The paramId for each register is available in the
 764:Generated_Source\PSoC4/CapSense_Structure.c **** *  CapSense RegisterMap header file as
 765:Generated_Source\PSoC4/CapSense_Structure.c **** *  CapSense_<ParameterName>_PARAM_ID. The paramId is a special
 766:Generated_Source\PSoC4/CapSense_Structure.c **** *  enumerated value generated by the customizer. The format of paramId is as
 767:Generated_Source\PSoC4/CapSense_Structure.c **** *  follows:
 768:Generated_Source\PSoC4/CapSense_Structure.c **** *    1. [ byte 3 byte 2 byte 1 byte 0 ]
 769:Generated_Source\PSoC4/CapSense_Structure.c **** *    2. [ TTWFCCCC UIIIIIII MMMMMMMM LLLLLLLL ]
 770:Generated_Source\PSoC4/CapSense_Structure.c **** *    3. T - encodes the parameter type:
 771:Generated_Source\PSoC4/CapSense_Structure.c **** *      - 01b: uint8
 772:Generated_Source\PSoC4/CapSense_Structure.c **** *      - 10b: uint16
 773:Generated_Source\PSoC4/CapSense_Structure.c **** *      - 11b: uint32
 774:Generated_Source\PSoC4/CapSense_Structure.c **** *    4. W - indicates whether the parameter is writable:
 775:Generated_Source\PSoC4/CapSense_Structure.c **** *      - 0: ReadOnly
 776:Generated_Source\PSoC4/CapSense_Structure.c **** *      - 1: Read/Write
 777:Generated_Source\PSoC4/CapSense_Structure.c **** *    5. C - 4 bit CRC (X^3 + 1) of the whole paramId word, the C bits are
 778:Generated_Source\PSoC4/CapSense_Structure.c **** *       filled with 0s when the CRC is calculated.
 779:Generated_Source\PSoC4/CapSense_Structure.c **** *    6. U - indicates if the parameter affects the RAM Widget Object CRC.
 780:Generated_Source\PSoC4/CapSense_Structure.c **** *    7. I - specifies that the widgetId parameter belongs to
 781:Generated_Source\PSoC4/CapSense_Structure.c **** *    8. M,L - the parameter offset MSB and LSB accordingly in:
 782:Generated_Source\PSoC4/CapSense_Structure.c **** *      - Flash Data Structure if W bit is 0.
 783:Generated_Source\PSoC4/CapSense_Structure.c **** *      - RAM Data Structure if W bit is 1.
 784:Generated_Source\PSoC4/CapSense_Structure.c **** *
 785:Generated_Source\PSoC4/CapSense_Structure.c **** *  Refer to the \ref group_structures section for details of the data structure
 786:Generated_Source\PSoC4/CapSense_Structure.c **** *  organization and examples of its register access.
 787:Generated_Source\PSoC4/CapSense_Structure.c **** *
 788:Generated_Source\PSoC4/CapSense_Structure.c **** *  This function writes specified value into the desired register without
 789:Generated_Source\PSoC4/CapSense_Structure.c **** *  other registers update. It is application layer responsibility to keep all
 790:Generated_Source\PSoC4/CapSense_Structure.c **** *  the data structure registers aligned. Repeated call of
 791:Generated_Source\PSoC4/CapSense_Structure.c **** *  CapSense_Start() function helps aligning dependent register values.
 792:Generated_Source\PSoC4/CapSense_Structure.c **** *
 793:Generated_Source\PSoC4/CapSense_Structure.c **** * \param paramId
 794:Generated_Source\PSoC4/CapSense_Structure.c **** *  Specifies the ID of parameter to set its value.
 795:Generated_Source\PSoC4/CapSense_Structure.c **** *  A macro for the parameter ID can be found in the CapSense RegisterMap header
 796:Generated_Source\PSoC4/CapSense_Structure.c **** *  file defined as CapSense_<ParameterName>_PARAM_ID.
 797:Generated_Source\PSoC4/CapSense_Structure.c **** 
 798:Generated_Source\PSoC4/CapSense_Structure.c **** * \param value
ARM GAS  C:\Users\Jupiter\AppData\Local\Temp\ccFOAWw4.s 			page 22


 799:Generated_Source\PSoC4/CapSense_Structure.c **** *  Specifies the new parameter's value.
 800:Generated_Source\PSoC4/CapSense_Structure.c **** *
 801:Generated_Source\PSoC4/CapSense_Structure.c **** * \return
 802:Generated_Source\PSoC4/CapSense_Structure.c **** *  Returns the status of the operation:
 803:Generated_Source\PSoC4/CapSense_Structure.c **** *    - CYRET_SUCCESS - The operation is successfully completed.
 804:Generated_Source\PSoC4/CapSense_Structure.c **** *    - CYRET_BAD_PARAM - The input parameter is invalid.
 805:Generated_Source\PSoC4/CapSense_Structure.c **** *
 806:Generated_Source\PSoC4/CapSense_Structure.c **** *******************************************************************************/
 807:Generated_Source\PSoC4/CapSense_Structure.c **** cystatus CapSense_SetParam(uint32 paramId, uint32 value)
 808:Generated_Source\PSoC4/CapSense_Structure.c **** {
 372              		.loc 1 808 0
 373              		.cfi_startproc
 374              		@ args = 0, pretend = 0, frame = 8
 375              		@ frame_needed = 0, uses_anonymous_args = 0
 376              	.LVL39:
 377 0000 30B5     		push	{r4, r5, lr}
 378              		.cfi_def_cfa_offset 12
 379              		.cfi_offset 4, -12
 380              		.cfi_offset 5, -8
 381              		.cfi_offset 14, -4
 382 0002 83B0     		sub	sp, sp, #12
 383              		.cfi_def_cfa_offset 24
 384 0004 0D00     		movs	r5, r1
 809:Generated_Source\PSoC4/CapSense_Structure.c ****     cystatus result;
 810:Generated_Source\PSoC4/CapSense_Structure.c ****     PARAM_ID_STRUCT pData;
 811:Generated_Source\PSoC4/CapSense_Structure.c **** 
 812:Generated_Source\PSoC4/CapSense_Structure.c ****     union
 813:Generated_Source\PSoC4/CapSense_Structure.c ****     {
 814:Generated_Source\PSoC4/CapSense_Structure.c ****         volatile void   * ptr;
 815:Generated_Source\PSoC4/CapSense_Structure.c ****         volatile uint8  * ptrUint8;
 816:Generated_Source\PSoC4/CapSense_Structure.c ****         volatile uint16 * ptrUint16;
 817:Generated_Source\PSoC4/CapSense_Structure.c ****         volatile uint32 * ptrUint32;
 818:Generated_Source\PSoC4/CapSense_Structure.c ****     } ptrData;
 819:Generated_Source\PSoC4/CapSense_Structure.c **** 
 820:Generated_Source\PSoC4/CapSense_Structure.c ****     result = DsParseParamId(paramId, &pData);
 385              		.loc 1 820 0
 386 0006 6946     		mov	r1, sp
 387              	.LVL40:
 388 0008 FFF7FEFF 		bl	DsParseParamId
 389              	.LVL41:
 390 000c 041E     		subs	r4, r0, #0
 391              	.LVL42:
 821:Generated_Source\PSoC4/CapSense_Structure.c **** 
 822:Generated_Source\PSoC4/CapSense_Structure.c ****     /* verify if parameter is writable */
 823:Generated_Source\PSoC4/CapSense_Structure.c ****     if (CYRET_SUCCESS == result)
 392              		.loc 1 823 0
 393 000e 04D1     		bne	.L33
 824:Generated_Source\PSoC4/CapSense_Structure.c ****     {
 825:Generated_Source\PSoC4/CapSense_Structure.c ****         if (0u == pData.rw)
 394              		.loc 1 825 0
 395 0010 6B46     		mov	r3, sp
 396 0012 9B79     		ldrb	r3, [r3, #6]
 397 0014 002B     		cmp	r3, #0
 398 0016 00D1     		bne	.L33
 826:Generated_Source\PSoC4/CapSense_Structure.c ****         {
 827:Generated_Source\PSoC4/CapSense_Structure.c ****             result = CYRET_BAD_PARAM;
 399              		.loc 1 827 0
ARM GAS  C:\Users\Jupiter\AppData\Local\Temp\ccFOAWw4.s 			page 23


 400 0018 0134     		adds	r4, r4, #1
 401              	.L33:
 402              	.LVL43:
 828:Generated_Source\PSoC4/CapSense_Structure.c ****         }
 829:Generated_Source\PSoC4/CapSense_Structure.c ****     }
 830:Generated_Source\PSoC4/CapSense_Structure.c **** 
 831:Generated_Source\PSoC4/CapSense_Structure.c ****     /* Parse and validate paramId */
 832:Generated_Source\PSoC4/CapSense_Structure.c ****     if (CYRET_SUCCESS == result)
 403              		.loc 1 832 0
 404 001a 002C     		cmp	r4, #0
 405 001c 16D1     		bne	.L34
 833:Generated_Source\PSoC4/CapSense_Structure.c ****     {
 834:Generated_Source\PSoC4/CapSense_Structure.c ****         /* Get base address of parameter */
 835:Generated_Source\PSoC4/CapSense_Structure.c ****         ptrData.ptr = &CapSense_dsRam;
 836:Generated_Source\PSoC4/CapSense_Structure.c **** 
 837:Generated_Source\PSoC4/CapSense_Structure.c ****         /* Add offset to base address */
 838:Generated_Source\PSoC4/CapSense_Structure.c ****         ptrData.ptrUint8 += pData.offset;
 406              		.loc 1 838 0
 407 001e 6B46     		mov	r3, sp
 408 0020 1A88     		ldrh	r2, [r3]
 409 0022 0C4B     		ldr	r3, .L39
 410 0024 D318     		adds	r3, r2, r3
 839:Generated_Source\PSoC4/CapSense_Structure.c **** 
 840:Generated_Source\PSoC4/CapSense_Structure.c ****         /* Write data */
 841:Generated_Source\PSoC4/CapSense_Structure.c ****         if (DS_PARAM_TYPE_UINT8 == pData.type)
 411              		.loc 1 841 0
 412 0026 6A46     		mov	r2, sp
 413 0028 D279     		ldrb	r2, [r2, #7]
 414 002a 012A     		cmp	r2, #1
 415 002c 02D1     		bne	.L35
 842:Generated_Source\PSoC4/CapSense_Structure.c ****         {
 843:Generated_Source\PSoC4/CapSense_Structure.c ****             *ptrData.ptrUint8 = LO8(value);
 416              		.loc 1 843 0
 417 002e EDB2     		uxtb	r5, r5
 418              	.LVL44:
 419 0030 1D70     		strb	r5, [r3]
 420 0032 0BE0     		b	.L34
 421              	.LVL45:
 422              	.L35:
 844:Generated_Source\PSoC4/CapSense_Structure.c ****         }
 845:Generated_Source\PSoC4/CapSense_Structure.c ****         else if (DS_PARAM_TYPE_UINT16 == pData.type)
 423              		.loc 1 845 0
 424 0034 022A     		cmp	r2, #2
 425 0036 02D1     		bne	.L36
 846:Generated_Source\PSoC4/CapSense_Structure.c ****         {
 847:Generated_Source\PSoC4/CapSense_Structure.c ****             *ptrData.ptrUint16 = LO16(value);
 426              		.loc 1 847 0
 427 0038 ADB2     		uxth	r5, r5
 428              	.LVL46:
 429 003a 1D80     		strh	r5, [r3]
 430 003c 06E0     		b	.L34
 431              	.LVL47:
 432              	.L36:
 848:Generated_Source\PSoC4/CapSense_Structure.c ****         }
 849:Generated_Source\PSoC4/CapSense_Structure.c ****         else if (DS_PARAM_TYPE_UINT32 == pData.type)
 433              		.loc 1 849 0
 434 003e 032A     		cmp	r2, #3
ARM GAS  C:\Users\Jupiter\AppData\Local\Temp\ccFOAWw4.s 			page 24


 435 0040 01D1     		bne	.L37
 850:Generated_Source\PSoC4/CapSense_Structure.c ****         {
 851:Generated_Source\PSoC4/CapSense_Structure.c ****             *ptrData.ptrUint32 = value;
 436              		.loc 1 851 0
 437 0042 1D60     		str	r5, [r3]
 438 0044 02E0     		b	.L34
 439              	.L37:
 852:Generated_Source\PSoC4/CapSense_Structure.c ****         }
 853:Generated_Source\PSoC4/CapSense_Structure.c ****         else
 854:Generated_Source\PSoC4/CapSense_Structure.c ****         {
 855:Generated_Source\PSoC4/CapSense_Structure.c ****             /* Parameter comes here already validated. */
 856:Generated_Source\PSoC4/CapSense_Structure.c ****             CYASSERT(0u);
 440              		.loc 1 856 0 discriminator 1
 441 0046 0020     		movs	r0, #0
 442 0048 FFF7FEFF 		bl	CyHalt
 443              	.LVL48:
 444              	.L34:
 857:Generated_Source\PSoC4/CapSense_Structure.c ****         }
 858:Generated_Source\PSoC4/CapSense_Structure.c **** 
 859:Generated_Source\PSoC4/CapSense_Structure.c ****         #if (CapSense_ENABLE == (CapSense_TST_WDGT_CRC_EN || CapSense_TST_GLOBAL_CRC_EN))
 860:Generated_Source\PSoC4/CapSense_Structure.c ****             /* Update widget or global CRC if self-test is enabled and parameter affects it */
 861:Generated_Source\PSoC4/CapSense_Structure.c ****             if (0u != pData.affectsCrc)
 862:Generated_Source\PSoC4/CapSense_Structure.c ****             {
 863:Generated_Source\PSoC4/CapSense_Structure.c ****                 if ((ptrData.ptrUint16 >= &CapSense_dsRam.csd0Config) &&
 864:Generated_Source\PSoC4/CapSense_Structure.c ****                     (ptrData.ptrUint16 <  &CapSense_dsRam.glbCrc))
 865:Generated_Source\PSoC4/CapSense_Structure.c ****                 {
 866:Generated_Source\PSoC4/CapSense_Structure.c **** 
 867:Generated_Source\PSoC4/CapSense_Structure.c ****                     #if (CapSense_ENABLE == CapSense_TST_GLOBAL_CRC_EN)
 868:Generated_Source\PSoC4/CapSense_Structure.c ****                         CapSense_DsUpdateGlobalCrc();
 869:Generated_Source\PSoC4/CapSense_Structure.c ****                     #endif /* (CapSense_ENABLE == CapSense_TST_GLOBAL_CRC_EN) */
 870:Generated_Source\PSoC4/CapSense_Structure.c **** 
 871:Generated_Source\PSoC4/CapSense_Structure.c ****                 }
 872:Generated_Source\PSoC4/CapSense_Structure.c ****                 else
 873:Generated_Source\PSoC4/CapSense_Structure.c ****                 {
 874:Generated_Source\PSoC4/CapSense_Structure.c ****                     #if (CapSense_ENABLE == CapSense_TST_WDGT_CRC_EN)
 875:Generated_Source\PSoC4/CapSense_Structure.c ****                         CapSense_DsUpdateWidgetCrc((uint32)pData.widgetId);
 876:Generated_Source\PSoC4/CapSense_Structure.c ****                     #endif /* (CapSense_ENABLE == CapSense_TST_WDGT_CRC_EN) */
 877:Generated_Source\PSoC4/CapSense_Structure.c ****                 }
 878:Generated_Source\PSoC4/CapSense_Structure.c ****             }
 879:Generated_Source\PSoC4/CapSense_Structure.c ****         #endif /* (CapSense_ENABLE == (CapSense_TST_WDGT_CRC_EN || CapSense_TST_GLOBAL_CRC_EN)) */
 880:Generated_Source\PSoC4/CapSense_Structure.c ****     }
 881:Generated_Source\PSoC4/CapSense_Structure.c **** 
 882:Generated_Source\PSoC4/CapSense_Structure.c ****     return result;
 883:Generated_Source\PSoC4/CapSense_Structure.c **** }
 445              		.loc 1 883 0
 446 004c 2000     		movs	r0, r4
 447 004e 03B0     		add	sp, sp, #12
 448              		@ sp needed
 449              	.LVL49:
 450 0050 30BD     		pop	{r4, r5, pc}
 451              	.L40:
 452 0052 C046     		.align	2
 453              	.L39:
 454 0054 00000000 		.word	CapSense_dsRam
 455              		.cfi_endproc
 456              	.LFE4:
 457              		.size	CapSense_SetParam, .-CapSense_SetParam
ARM GAS  C:\Users\Jupiter\AppData\Local\Temp\ccFOAWw4.s 			page 25


 458              		.section	.text.CapSense_IsAnyWidgetActive,"ax",%progbits
 459              		.align	2
 460              		.global	CapSense_IsAnyWidgetActive
 461              		.code	16
 462              		.thumb_func
 463              		.type	CapSense_IsAnyWidgetActive, %function
 464              	CapSense_IsAnyWidgetActive:
 465              	.LFB5:
 884:Generated_Source\PSoC4/CapSense_Structure.c **** 
 885:Generated_Source\PSoC4/CapSense_Structure.c **** /*******************************************************************************
 886:Generated_Source\PSoC4/CapSense_Structure.c **** * Function Name: CapSense_IsAnyWidgetActive
 887:Generated_Source\PSoC4/CapSense_Structure.c **** ****************************************************************************//**
 888:Generated_Source\PSoC4/CapSense_Structure.c **** *
 889:Generated_Source\PSoC4/CapSense_Structure.c **** * \brief
 890:Generated_Source\PSoC4/CapSense_Structure.c **** *  Reports if any widget has detected a touch.
 891:Generated_Source\PSoC4/CapSense_Structure.c **** *
 892:Generated_Source\PSoC4/CapSense_Structure.c **** * \details
 893:Generated_Source\PSoC4/CapSense_Structure.c **** *  This function reports if any widget has detected a touch or not by extracting
 894:Generated_Source\PSoC4/CapSense_Structure.c **** *  information from the wdgtStatus registers
 895:Generated_Source\PSoC4/CapSense_Structure.c **** *  (CapSense_WDGT_STATUS<X>_VALUE). This function does not process a
 896:Generated_Source\PSoC4/CapSense_Structure.c **** *  widget but extracts processed results from the \ref group_structures.
 897:Generated_Source\PSoC4/CapSense_Structure.c **** *
 898:Generated_Source\PSoC4/CapSense_Structure.c **** * \return
 899:Generated_Source\PSoC4/CapSense_Structure.c **** *   Returns the touch detection status of all the widgets:
 900:Generated_Source\PSoC4/CapSense_Structure.c **** *     - Zero - No touch is detected in all the widgets or sensors.
 901:Generated_Source\PSoC4/CapSense_Structure.c **** *     - Non-zero - At least one widget or sensor detected a touch.
 902:Generated_Source\PSoC4/CapSense_Structure.c **** *
 903:Generated_Source\PSoC4/CapSense_Structure.c **** *******************************************************************************/
 904:Generated_Source\PSoC4/CapSense_Structure.c **** uint32 CapSense_IsAnyWidgetActive(void)
 905:Generated_Source\PSoC4/CapSense_Structure.c **** {
 466              		.loc 1 905 0
 467              		.cfi_startproc
 468              		@ args = 0, pretend = 0, frame = 0
 469              		@ frame_needed = 0, uses_anonymous_args = 0
 470              		@ link register save eliminated.
 471              	.LVL50:
 906:Generated_Source\PSoC4/CapSense_Structure.c ****     uint32 result = 0Lu;
 907:Generated_Source\PSoC4/CapSense_Structure.c ****     uint32 wdWord;
 908:Generated_Source\PSoC4/CapSense_Structure.c **** 
 909:Generated_Source\PSoC4/CapSense_Structure.c ****     for (wdWord = CapSense_WDGT_STATUS_WORDS; wdWord-- > 0u;)
 472              		.loc 1 909 0
 473 0000 0123     		movs	r3, #1
 906:Generated_Source\PSoC4/CapSense_Structure.c ****     uint32 result = 0Lu;
 474              		.loc 1 906 0
 475 0002 0020     		movs	r0, #0
 476              		.loc 1 909 0
 477 0004 06E0     		b	.L42
 478              	.LVL51:
 479              	.L43:
 910:Generated_Source\PSoC4/CapSense_Structure.c ****     {
 911:Generated_Source\PSoC4/CapSense_Structure.c ****         result |= CapSense_dsRam.wdgtStatus[wdWord];
 480              		.loc 1 911 0
 481 0006 131D     		adds	r3, r2, #4
 482 0008 9B00     		lsls	r3, r3, #2
 483 000a 0449     		ldr	r1, .L44
 484 000c CB18     		adds	r3, r1, r3
 485 000e 5B68     		ldr	r3, [r3, #4]
ARM GAS  C:\Users\Jupiter\AppData\Local\Temp\ccFOAWw4.s 			page 26


 486 0010 1843     		orrs	r0, r3
 487              	.LVL52:
 909:Generated_Source\PSoC4/CapSense_Structure.c ****     {
 488              		.loc 1 909 0
 489 0012 1300     		movs	r3, r2
 490              	.LVL53:
 491              	.L42:
 909:Generated_Source\PSoC4/CapSense_Structure.c ****     {
 492              		.loc 1 909 0 is_stmt 0 discriminator 1
 493 0014 5A1E     		subs	r2, r3, #1
 494              	.LVL54:
 495 0016 002B     		cmp	r3, #0
 496 0018 F5D1     		bne	.L43
 912:Generated_Source\PSoC4/CapSense_Structure.c ****     }
 913:Generated_Source\PSoC4/CapSense_Structure.c **** 
 914:Generated_Source\PSoC4/CapSense_Structure.c ****     return result;
 915:Generated_Source\PSoC4/CapSense_Structure.c **** }
 497              		.loc 1 915 0 is_stmt 1
 498              		@ sp needed
 499 001a 7047     		bx	lr
 500              	.L45:
 501              		.align	2
 502              	.L44:
 503 001c 00000000 		.word	CapSense_dsRam
 504              		.cfi_endproc
 505              	.LFE5:
 506              		.size	CapSense_IsAnyWidgetActive, .-CapSense_IsAnyWidgetActive
 507              		.section	.text.CapSense_IsWidgetActive,"ax",%progbits
 508              		.align	2
 509              		.global	CapSense_IsWidgetActive
 510              		.code	16
 511              		.thumb_func
 512              		.type	CapSense_IsWidgetActive, %function
 513              	CapSense_IsWidgetActive:
 514              	.LFB6:
 916:Generated_Source\PSoC4/CapSense_Structure.c **** 
 917:Generated_Source\PSoC4/CapSense_Structure.c **** 
 918:Generated_Source\PSoC4/CapSense_Structure.c **** /*******************************************************************************
 919:Generated_Source\PSoC4/CapSense_Structure.c **** * Function Name: CapSense_IsWidgetActive
 920:Generated_Source\PSoC4/CapSense_Structure.c **** ****************************************************************************//**
 921:Generated_Source\PSoC4/CapSense_Structure.c **** *
 922:Generated_Source\PSoC4/CapSense_Structure.c **** * \brief
 923:Generated_Source\PSoC4/CapSense_Structure.c **** *  Reports if the specified widget detects a touch on any of its sensors.
 924:Generated_Source\PSoC4/CapSense_Structure.c **** *
 925:Generated_Source\PSoC4/CapSense_Structure.c **** * \details
 926:Generated_Source\PSoC4/CapSense_Structure.c **** *  This function reports if the specified widget has detected a touch or not by
 927:Generated_Source\PSoC4/CapSense_Structure.c **** *  extracting information from the wdgtStatus registers
 928:Generated_Source\PSoC4/CapSense_Structure.c **** *  (CapSense_WDGT_STATUS<X>_VALUE). This function does not process the
 929:Generated_Source\PSoC4/CapSense_Structure.c **** *  widget but extracts processed results from the \ref group_structures.
 930:Generated_Source\PSoC4/CapSense_Structure.c **** *
 931:Generated_Source\PSoC4/CapSense_Structure.c **** * \param widgetId
 932:Generated_Source\PSoC4/CapSense_Structure.c **** *  Specifies the ID number of the widget to get its status.
 933:Generated_Source\PSoC4/CapSense_Structure.c **** *  A macro for the widget ID can be found in the CapSense Configuration header
 934:Generated_Source\PSoC4/CapSense_Structure.c **** *  file defined as CapSense_<WidgetName>_WDGT_ID.
 935:Generated_Source\PSoC4/CapSense_Structure.c **** *
 936:Generated_Source\PSoC4/CapSense_Structure.c **** * \return
 937:Generated_Source\PSoC4/CapSense_Structure.c **** *  Returns the touch detection status of the specified widgets:
ARM GAS  C:\Users\Jupiter\AppData\Local\Temp\ccFOAWw4.s 			page 27


 938:Generated_Source\PSoC4/CapSense_Structure.c **** *    - Zero - No touch is detected in the specified widget or a wrong widgetId
 939:Generated_Source\PSoC4/CapSense_Structure.c **** *      is specified.
 940:Generated_Source\PSoC4/CapSense_Structure.c **** *    - Non-zero if at least one sensor of the specified widget is active, i.e.
 941:Generated_Source\PSoC4/CapSense_Structure.c **** *      a touch is detected.
 942:Generated_Source\PSoC4/CapSense_Structure.c **** *
 943:Generated_Source\PSoC4/CapSense_Structure.c **** *******************************************************************************/
 944:Generated_Source\PSoC4/CapSense_Structure.c **** uint32 CapSense_IsWidgetActive(uint32 widgetId)
 945:Generated_Source\PSoC4/CapSense_Structure.c **** {
 515              		.loc 1 945 0
 516              		.cfi_startproc
 517              		@ args = 0, pretend = 0, frame = 0
 518              		@ frame_needed = 0, uses_anonymous_args = 0
 519              		@ link register save eliminated.
 520              	.LVL55:
 946:Generated_Source\PSoC4/CapSense_Structure.c ****     uint32 result = 0Lu;
 947:Generated_Source\PSoC4/CapSense_Structure.c **** 
 948:Generated_Source\PSoC4/CapSense_Structure.c ****     if (widgetId < CapSense_TOTAL_WIDGETS)
 521              		.loc 1 948 0
 522 0000 0128     		cmp	r0, #1
 523 0002 0BD8     		bhi	.L48
 949:Generated_Source\PSoC4/CapSense_Structure.c ****     {
 950:Generated_Source\PSoC4/CapSense_Structure.c ****         result = CapSense_GET_WIDGET_ACTIVE_STATUS(widgetId);
 524              		.loc 1 950 0
 525 0004 1F23     		movs	r3, #31
 526 0006 0340     		ands	r3, r0
 527 0008 0122     		movs	r2, #1
 528 000a 9A40     		lsls	r2, r2, r3
 529 000c 4009     		lsrs	r0, r0, #5
 530              	.LVL56:
 531 000e 031D     		adds	r3, r0, #4
 532 0010 9B00     		lsls	r3, r3, #2
 533 0012 0348     		ldr	r0, .L49
 534 0014 C318     		adds	r3, r0, r3
 535 0016 5868     		ldr	r0, [r3, #4]
 536 0018 1040     		ands	r0, r2
 537              	.LVL57:
 538 001a 00E0     		b	.L47
 539              	.LVL58:
 540              	.L48:
 946:Generated_Source\PSoC4/CapSense_Structure.c ****     uint32 result = 0Lu;
 541              		.loc 1 946 0
 542 001c 0020     		movs	r0, #0
 543              	.LVL59:
 544              	.L47:
 951:Generated_Source\PSoC4/CapSense_Structure.c ****     }
 952:Generated_Source\PSoC4/CapSense_Structure.c ****     return result;
 953:Generated_Source\PSoC4/CapSense_Structure.c **** }
 545              		.loc 1 953 0
 546              		@ sp needed
 547 001e 7047     		bx	lr
 548              	.L50:
 549              		.align	2
 550              	.L49:
 551 0020 00000000 		.word	CapSense_dsRam
 552              		.cfi_endproc
 553              	.LFE6:
 554              		.size	CapSense_IsWidgetActive, .-CapSense_IsWidgetActive
ARM GAS  C:\Users\Jupiter\AppData\Local\Temp\ccFOAWw4.s 			page 28


 555              		.section	.text.CapSense_IsSensorActive,"ax",%progbits
 556              		.align	2
 557              		.global	CapSense_IsSensorActive
 558              		.code	16
 559              		.thumb_func
 560              		.type	CapSense_IsSensorActive, %function
 561              	CapSense_IsSensorActive:
 562              	.LFB7:
 954:Generated_Source\PSoC4/CapSense_Structure.c **** 
 955:Generated_Source\PSoC4/CapSense_Structure.c **** 
 956:Generated_Source\PSoC4/CapSense_Structure.c **** /*******************************************************************************
 957:Generated_Source\PSoC4/CapSense_Structure.c **** * Function Name: CapSense_IsSensorActive
 958:Generated_Source\PSoC4/CapSense_Structure.c **** ****************************************************************************//**
 959:Generated_Source\PSoC4/CapSense_Structure.c **** *
 960:Generated_Source\PSoC4/CapSense_Structure.c **** * \brief
 961:Generated_Source\PSoC4/CapSense_Structure.c **** *  Reports if the specified sensor in the widget detects a touch.
 962:Generated_Source\PSoC4/CapSense_Structure.c **** *
 963:Generated_Source\PSoC4/CapSense_Structure.c **** * \details
 964:Generated_Source\PSoC4/CapSense_Structure.c **** *  This function reports if the specified sensor in the widget has detected a
 965:Generated_Source\PSoC4/CapSense_Structure.c **** *  touch or not by extracting information from the wdgtStatus registers
 966:Generated_Source\PSoC4/CapSense_Structure.c **** *  (CapSense_WDGT_STATUS<X>_VALUE). This function does not process the
 967:Generated_Source\PSoC4/CapSense_Structure.c **** *  widget or sensor but extracts processed results from the \ref group_structures.
 968:Generated_Source\PSoC4/CapSense_Structure.c **** *
 969:Generated_Source\PSoC4/CapSense_Structure.c **** *  For proximity sensors, this function returns the proximity detection status. To
 970:Generated_Source\PSoC4/CapSense_Structure.c **** *  get the finger touch status of proximity sensors, use the
 971:Generated_Source\PSoC4/CapSense_Structure.c **** *  CapSense_IsProximitySensorActive() function.
 972:Generated_Source\PSoC4/CapSense_Structure.c **** *
 973:Generated_Source\PSoC4/CapSense_Structure.c **** * \param widgetId
 974:Generated_Source\PSoC4/CapSense_Structure.c **** *  Specifies the ID number of the widget.
 975:Generated_Source\PSoC4/CapSense_Structure.c **** *  A macro for the widget ID can be found in the CapSense Configuration header
 976:Generated_Source\PSoC4/CapSense_Structure.c **** *  file defined as CapSense_<WidgetName>_WDGT_ID.
 977:Generated_Source\PSoC4/CapSense_Structure.c **** 
 978:Generated_Source\PSoC4/CapSense_Structure.c **** * \param sensorId
 979:Generated_Source\PSoC4/CapSense_Structure.c **** *  Specifies the ID number of the sensor within the widget to get its touch
 980:Generated_Source\PSoC4/CapSense_Structure.c **** *  detection status.
 981:Generated_Source\PSoC4/CapSense_Structure.c **** *  A macro for the sensor ID within the specified widget can be found in the
 982:Generated_Source\PSoC4/CapSense_Structure.c **** *  CapSense Configuration header file defined as
 983:Generated_Source\PSoC4/CapSense_Structure.c **** *  CapSense_<WidgetName>_SNS<SensorNumber>_ID.
 984:Generated_Source\PSoC4/CapSense_Structure.c **** *
 985:Generated_Source\PSoC4/CapSense_Structure.c **** * \return
 986:Generated_Source\PSoC4/CapSense_Structure.c **** *  Returns the touch detection status of the specified sensor / widget:
 987:Generated_Source\PSoC4/CapSense_Structure.c **** *    - Zero if no touch is detected in the specified sensor / widget or a wrong
 988:Generated_Source\PSoC4/CapSense_Structure.c **** *      widget ID / sensor ID is specified.
 989:Generated_Source\PSoC4/CapSense_Structure.c **** *    - Non-zero if the specified sensor is active i.e. touch is detected. If the
 990:Generated_Source\PSoC4/CapSense_Structure.c **** *      specific sensor belongs to a proximity widget, the proximity detection
 991:Generated_Source\PSoC4/CapSense_Structure.c **** *      status is returned.
 992:Generated_Source\PSoC4/CapSense_Structure.c **** *
 993:Generated_Source\PSoC4/CapSense_Structure.c **** *******************************************************************************/
 994:Generated_Source\PSoC4/CapSense_Structure.c **** uint32 CapSense_IsSensorActive(uint32 widgetId, uint32 sensorId)
 995:Generated_Source\PSoC4/CapSense_Structure.c **** {
 563              		.loc 1 995 0
 564              		.cfi_startproc
 565              		@ args = 0, pretend = 0, frame = 0
 566              		@ frame_needed = 0, uses_anonymous_args = 0
 567              		@ link register save eliminated.
 568              	.LVL60:
 996:Generated_Source\PSoC4/CapSense_Structure.c ****     uint32 result = 0Lu;
ARM GAS  C:\Users\Jupiter\AppData\Local\Temp\ccFOAWw4.s 			page 29


 997:Generated_Source\PSoC4/CapSense_Structure.c **** 
 998:Generated_Source\PSoC4/CapSense_Structure.c ****     if ((widgetId < CapSense_TOTAL_WIDGETS) &&
 569              		.loc 1 998 0
 570 0000 0128     		cmp	r0, #1
 571 0002 0CD8     		bhi	.L53
 999:Generated_Source\PSoC4/CapSense_Structure.c ****         (sensorId < CapSense_GET_SENSOR_COUNT(widgetId)))
 572              		.loc 1 999 0 discriminator 1
 573 0004 4301     		lsls	r3, r0, #5
 574 0006 084A     		ldr	r2, .L55
 575 0008 D318     		adds	r3, r2, r3
 576 000a 9B8B     		ldrh	r3, [r3, #28]
 998:Generated_Source\PSoC4/CapSense_Structure.c ****         (sensorId < CapSense_GET_SENSOR_COUNT(widgetId)))
 577              		.loc 1 998 0 discriminator 1
 578 000c 8B42     		cmp	r3, r1
 579 000e 08D9     		bls	.L54
1000:Generated_Source\PSoC4/CapSense_Structure.c ****     {
1001:Generated_Source\PSoC4/CapSense_Structure.c ****         #if (CapSense_ENABLE == CapSense_PROXIMITY_WIDGET_EN)
1002:Generated_Source\PSoC4/CapSense_Structure.c ****             if (CapSense_WD_PROXIMITY_E ==
1003:Generated_Source\PSoC4/CapSense_Structure.c ****                 (CapSense_WD_TYPE_ENUM)CapSense_dsFlash.wdgtArray[widgetId].wdgtType)
1004:Generated_Source\PSoC4/CapSense_Structure.c ****             {
1005:Generated_Source\PSoC4/CapSense_Structure.c ****                 sensorId = CapSense_PROX_STS_OFFSET(sensorId);
1006:Generated_Source\PSoC4/CapSense_Structure.c ****             }
1007:Generated_Source\PSoC4/CapSense_Structure.c ****         #endif /* (CapSense_ENABLE != CapSense_PROXIMITY_WIDGET_EN) */
1008:Generated_Source\PSoC4/CapSense_Structure.c ****         result = CapSense_dsRam.snsStatus[widgetId] & (1Lu << sensorId);
 580              		.loc 1 1008 0
 581 0010 064B     		ldr	r3, .L55+4
 582 0012 1818     		adds	r0, r3, r0
 583              	.LVL61:
 584 0014 037E     		ldrb	r3, [r0, #24]
 585 0016 0120     		movs	r0, #1
 586 0018 8840     		lsls	r0, r0, r1
 587 001a 1840     		ands	r0, r3
 588              	.LVL62:
 589 001c 02E0     		b	.L52
 590              	.LVL63:
 591              	.L53:
 996:Generated_Source\PSoC4/CapSense_Structure.c **** 
 592              		.loc 1 996 0
 593 001e 0020     		movs	r0, #0
 594              	.LVL64:
 595 0020 00E0     		b	.L52
 596              	.LVL65:
 597              	.L54:
 598 0022 0020     		movs	r0, #0
 599              	.LVL66:
 600              	.L52:
1009:Generated_Source\PSoC4/CapSense_Structure.c ****     }
1010:Generated_Source\PSoC4/CapSense_Structure.c **** 
1011:Generated_Source\PSoC4/CapSense_Structure.c ****     return result;
1012:Generated_Source\PSoC4/CapSense_Structure.c **** }
 601              		.loc 1 1012 0
 602              		@ sp needed
 603 0024 7047     		bx	lr
 604              	.L56:
 605 0026 C046     		.align	2
 606              	.L55:
 607 0028 00000000 		.word	.LANCHOR0
ARM GAS  C:\Users\Jupiter\AppData\Local\Temp\ccFOAWw4.s 			page 30


 608 002c 00000000 		.word	CapSense_dsRam
 609              		.cfi_endproc
 610              	.LFE7:
 611              		.size	CapSense_IsSensorActive, .-CapSense_IsSensorActive
 612              		.global	CapSense_ramIdacInit
 613              		.global	CapSense_ramWidgetInit
 614              		.global	CapSense_ioList
 615              		.global	CapSense_dsFlash
 616              		.comm	CapSense_dsRam,100,4
 617              		.section	.rodata
 618              		.align	2
 619              		.set	.LANCHOR0,. + 0
 620              		.type	CapSense_ramIdacInit, %object
 621              		.size	CapSense_ramIdacInit, 2
 622              	CapSense_ramIdacInit:
 623 0000 20       		.byte	32
 624 0001 20       		.byte	32
 625 0002 0000     		.space	2
 626              		.type	CapSense_dsFlash, %object
 627              		.size	CapSense_dsFlash, 64
 628              	CapSense_dsFlash:
 629 0004 00000000 		.word	CapSense_ioList
 630 0008 1E000000 		.word	CapSense_dsRam+30
 631 000c 46000000 		.word	CapSense_dsRam+70
 632 0010 00000000 		.word	0
 633 0014 1C000000 		.word	CapSense_debounceButton0
 634 0018 01280000 		.word	10241
 635 001c 0100     		.short	1
 636 001e 01       		.byte	1
 637 001f 01       		.byte	1
 638 0020 0C000000 		.word	CapSense_noiseEnvlpButton0
 639 0024 1C000000 		.word	CapSense_ioList+28
 640 0028 32000000 		.word	CapSense_dsRam+50
 641 002c 50000000 		.word	CapSense_dsRam+80
 642 0030 00000000 		.word	0
 643 0034 18000000 		.word	CapSense_debounceButton1
 644 0038 01280000 		.word	10241
 645 003c 0100     		.short	1
 646 003e 01       		.byte	1
 647 003f 01       		.byte	1
 648 0040 00000000 		.word	CapSense_noiseEnvlpButton1
 649              		.type	CapSense_ramWidgetInit, %object
 650              		.size	CapSense_ramWidgetInit, 40
 651              	CapSense_ramWidgetInit:
 652 0044 0C00     		.short	12
 653 0046 6400     		.short	100
 654 0048 28       		.byte	40
 655 0049 28       		.byte	40
 656 004a 0A       		.byte	10
 657 004b 03       		.byte	3
 658 004c 1E       		.byte	30
 659 004d 20       		.byte	32
 660 004e 04       		.byte	4
 661 004f 00       		.space	1
 662 0050 0400     		.short	4
 663 0052 00       		.byte	0
 664 0053 00       		.space	1
ARM GAS  C:\Users\Jupiter\AppData\Local\Temp\ccFOAWw4.s 			page 31


 665 0054 A000     		.short	160
 666 0056 0000     		.short	0
 667 0058 0C00     		.short	12
 668 005a 6400     		.short	100
 669 005c 28       		.byte	40
 670 005d 28       		.byte	40
 671 005e 0A       		.byte	10
 672 005f 03       		.byte	3
 673 0060 1E       		.byte	30
 674 0061 20       		.byte	32
 675 0062 04       		.byte	4
 676 0063 00       		.space	1
 677 0064 0400     		.short	4
 678 0066 00       		.byte	0
 679 0067 00       		.space	1
 680 0068 A000     		.short	160
 681 006a 0000     		.short	0
 682              		.type	CapSense_ioList, %object
 683              		.size	CapSense_ioList, 56
 684              	CapSense_ioList:
 685 006c 00000240 		.word	1073872896
 686 0070 08000440 		.word	1074003976
 687 0074 00000440 		.word	1074003968
 688 0078 04000440 		.word	1074003972
 689 007c 000F0000 		.word	3840
 690 0080 04000000 		.word	4
 691 0084 08       		.byte	8
 692 0085 02       		.byte	2
 693 0086 06       		.byte	6
 694 0087 00       		.space	1
 695 0088 00000240 		.word	1073872896
 696 008c 08000440 		.word	1074003976
 697 0090 00000440 		.word	1074003968
 698 0094 04000440 		.word	1074003972
 699 0098 0F000000 		.word	15
 700 009c 01000000 		.word	1
 701 00a0 00       		.byte	0
 702 00a1 00       		.byte	0
 703 00a2 00       		.byte	0
 704 00a3 00       		.space	1
 705              		.bss
 706              		.align	2
 707              		.type	CapSense_noiseEnvlpButton1, %object
 708              		.size	CapSense_noiseEnvlpButton1, 12
 709              	CapSense_noiseEnvlpButton1:
 710 0000 00000000 		.space	12
 710      00000000 
 710      00000000 
 711              		.type	CapSense_noiseEnvlpButton0, %object
 712              		.size	CapSense_noiseEnvlpButton0, 12
 713              	CapSense_noiseEnvlpButton0:
 714 000c 00000000 		.space	12
 714      00000000 
 714      00000000 
 715              		.type	CapSense_debounceButton1, %object
 716              		.size	CapSense_debounceButton1, 1
 717              	CapSense_debounceButton1:
ARM GAS  C:\Users\Jupiter\AppData\Local\Temp\ccFOAWw4.s 			page 32


 718 0018 00       		.space	1
 719 0019 000000   		.space	3
 720              		.type	CapSense_debounceButton0, %object
 721              		.size	CapSense_debounceButton0, 1
 722              	CapSense_debounceButton0:
 723 001c 00       		.space	1
 724              		.text
 725              	.Letext0:
 726              		.file 2 "Generated_Source\\PSoC4/cytypes.h"
 727              		.file 3 "Generated_Source\\PSoC4\\CapSense_Configuration.h"
 728              		.file 4 "Generated_Source\\PSoC4\\CapSense_SmartSense_LL.h"
 729              		.file 5 "Generated_Source\\PSoC4\\CapSense_Structure.h"
 730              		.file 6 "Generated_Source\\PSoC4\\CyLib.h"